Certificate:
    Data:
        Version: 3 (0x2)
        Serial Number:
            06:d8:d9:04:d5:58:43:46:f6:8a:2f:a7:54:22:7e:c4
        Signature Algorithm: sha256WithRSAEncryption
        Issuer: C = US, O = DigiCert Inc, OU = www.digicert.com, CN = DigiCert Global Root CA
        Validity
            Not Before: Apr 14 00:00:00 2021 GMT
            Not After : Apr 13 23:59:59 2031 GMT
        Subject: C = US, O = DigiCert Inc, CN = DigiCert TLS RSA SHA256 2020 CA1
        Subject Public Key Info:
            Public Key Algorithm: rsaEncryption
                Public-Key: (2048 bit)
                Modulus:
                    00:c1:4b:b3:65:47:70:bc:dd:4f:58:db:ec:9c:ed:
                    c3:66:e5:1f:31:13:54:ad:4a:66:46:1f:2c:0a:ec:
                    64:07:e5:2e:dc:dc:b9:0a:20:ed:df:e3:c4:d0:9e:
                    9a:a9:7a:1d:82:88:e5:11:56:db:1e:9f:58:c2:51:
                    e7:2c:34:0d:2e:d2:92:e1:56:cb:f1:79:5f:b3:bb:
                    87:ca:25:03:7b:9a:52:41:66:10:60:4f:57:13:49:
                    f0:e8:37:67:83:df:e7:d3:4b:67:4c:22:51:a6:df:
                    0e:99:10:ed:57:51:74:26:e2:7d:c7:ca:62:2e:13:
                    1b:7f:23:88:25:53:6f:c1:34:58:00:8b:84:ff:f8:
                    be:a7:58:49:22:7b:96:ad:a2:88:9b:15:bc:a0:7c:
                    df:e9:51:a8:d5:b0:ed:37:e2:36:b4:82:4b:62:b5:
                    49:9a:ec:c7:67:d6:e3:3e:f5:e3:d6:12:5e:44:f1:
                    bf:71:42:7d:58:84:03:80:b1:81:01:fa:f9:ca:32:
                    bb:b4:8e:27:87:27:c5:2b:74:d4:a8:d6:97:de:c3:
                    64:f9:ca:ce:53:a2:56:bc:78:17:8e:49:03:29:ae:
                    fb:49:4f:a4:15:b9:ce:f2:5c:19:57:6d:6b:79:a7:
                    2b:a2:27:20:13:b5:d0:3d:40:d3:21:30:07:93:ea:
                    99:f5
                Exponent: 65537 (0x10001)
        X509v3 extensions:
            X509v3 Basic Constraints: critical
                CA:TRUE, pathlen:0
            X509v3 Subject Key Identifier: 
                B7:6B:A2:EA:A8:AA:84:8C:79:EA:B4:DA:0F:98:B2:C5:95:76:B9:F4
            X509v3 Authority Key Identifier: 
                03:DE:50:35:56:D1:4C:BB:66:F0:A3:E2:1B:1B:C3:97:B2:3D:D1:55
            X509v3 Key Usage: critical
                Digital Signature, Certificate Sign, CRL Sign
            X509v3 Extended Key Usage: 
                TLS Web Server Authentication, TLS Web Client Authentication
            Authority Information Access: 
                OCSP - URI:http://ocsp.digicert.com
                CA Issuers - URI:http://cacerts.digicert.com/DigiCertGlobalRootCA.crt
            X509v3 CRL Distribution Points: 
                Full Name:
                  URI:http://crl3.digicert.com/DigiCertGlobalRootCA.crl
            X509v3 Certificate Policies: 
                Policy: 2.16.840.1.114412.2.1
                Policy: 2.23.140.1.1
                Policy: 2.23.140.1.2.1
                Policy: 2.23.140.1.2.2
                Policy: 2.23.140.1.2.3
    Signature Algorithm: sha256WithRSAEncryption
    Signature Value:
        80:32:ce:5e:0b:dd:6e:5a:0d:0a:af:e1:d6:84:cb:c0:8e:fa:
        85:70:ed:da:5d:b3:0c:f7:2b:75:40:fe:85:0a:fa:f3:31:78:
        b7:70:4b:1a:89:58:ba:80:bd:f3:6b:1d:e9:7e:cf:0b:ba:58:
        9c:59:d4:90:d3:fd:6c:fd:d0:98:6d:b7:71:82:5b:cf:6d:0b:
        5a:09:d0:7b:de:c4:43:d8:2a:a4:de:9e:41:26:5f:bb:8f:99:
        cb:dd:ae:e1:a8:6f:9f:87:fe:74:b7:1f:1b:20:ab:b1:4f:c6:
        f5:67:5d:5d:9b:3c:e9:ff:69:f7:61:6c:d6:d9:f3:fd:36:c6:
        ab:03:88:76:d2:4b:2e:75:86:e3:fc:d8:55:7d:26:c2:11:77:
        df:3e:02:b6:7c:f3:ab:7b:7a:86:36:6f:b8:f7:d8:93:71:cf:
        86:df:73:30:fa:7b:ab:ed:2a:59:c8:42:84:3b:11:17:1a:52:
        f3:c9:0e:14:7d:a2:5b:72:67:ba:71:ed:57:47:66:c5:b8:02:
        4a:65:34:5e:8b:d0:2a:3c:20:9c:51:99:4c:e7:52:9e:f7:6b:
        11:2b:0d:92:7e:1d:e8:8a:eb:36:16:43:87:ea:2a:63:bf:75:
        3f:eb:de:c4:03:bb:0a:3c:f7:30:ef:eb:af:4c:fc:8b:36:10:
        73:3e:f3:a4

-----BEGIN CERTIFICATE-----
MIIEvjCCA6agAwIBAgIQBtjZBNVYQ0b2ii+nVCJ+xDANBgkqhkiG9w0BAQsFADBh
MQswCQYDVQQGEwJVUzEVMBMGA1UEChMMRGlnaUNlcnQgSW5jMRkwFwYDVQQLExB3
d3cuZGlnaWNlcnQuY29tMSAwHgYDVQQDExdEaWdpQ2VydCBHbG9iYWwgUm9vdCBD
QTAeFw0yMTA0MTQwMDAwMDBaFw0zMTA0MTMyMzU5NTlaME8xCzAJBgNVBAYTAlVT
MRUwEwYDVQQKEwxEaWdpQ2VydCBJbmMxKTAnBgNVBAMTIERpZ2lDZXJ0IFRMUyBS
U0EgU0hBMjU2IDIwMjAgQ0ExMIIBIjANBgkqhkiG9w0BAQEFAAOCAQ8AMIIBCgKC
AQEAwUuzZUdwvN1PWNvsnO3DZuUfMRNUrUpmRh8sCuxkB+Uu3Ny5CiDt3+PE0J6a
qXodgojlEVbbHp9YwlHnLDQNLtKS4VbL8Xlfs7uHyiUDe5pSQWYQYE9XE0nw6Ddn
g9/n00tnTCJRpt8OmRDtV1F0JuJ9x8piLhMbfyOIJVNvwTRYAIuE//i+p1hJInuW
raKImxW8oHzf6VGo1bDtN+I2tIJLYrVJmuzHZ9bjPvXj1hJeRPG/cUJ9WIQDgLGB
Afr5yjK7tI4nhyfFK3TUqNaX3sNk+crOU6JWvHgXjkkDKa77SU+kFbnO8lwZV21r
eacroicgE7XQPUDTITAHk+qZ9QIDAQABo4IBgjCCAX4wEgYDVR0TAQH/BAgwBgEB
/wIBADAdBgNVHQ4EFgQUt2ui6qiqhIx56rTaD5iyxZV2ufQwHwYDVR0jBBgwFoAU
A95QNVbRTLtm8KPiGxvDl7I90VUwDgYDVR0PAQH/BAQDAgGGMB0GA1UdJQQWMBQG
CCsGAQUFBwMBBggrBgEFBQcDAjB2BggrBgEFBQcBAQRqMGgwJAYIKwYBBQUHMAGG
GGh0dHA6Ly9vY3NwLmRpZ2ljZXJ0LmNvbTBABggrBgEFBQcwAoY0aHR0cDovL2Nh
Y2VydHMuZGlnaWNlcnQuY29tL0RpZ2lDZXJ0R2xvYmFsUm9vdENBLmNydDBCBgNV
HR8EOzA5MDegNaAzhjFodHRwOi8vY3JsMy5kaWdpY2VydC5jb20vRGlnaUNlcnRH
bG9iYWxSb290Q0EuY3JsMD0GA1UdIAQ2MDQwCwYJYIZIAYb9bAIBMAcGBWeBDAEB
MAgGBmeBDAECATAIBgZngQwBAgIwCAYGZ4EMAQIDMA0GCSqGSIb3DQEBCwUAA4IB
AQCAMs5eC91uWg0Kr+HWhMvAjvqFcO3aXbMM9yt1QP6FCvrzMXi3cEsaiVi6gL3z
ax3pfs8LulicWdSQ0/1s/dCYbbdxglvPbQtaCdB73sRD2Cqk3p5BJl+7j5nL3a7h
qG+fh/50tx8bIKuxT8b1Z11dmzzp/2n3YWzW2fP9NsarA4h20ksudYbj/NhVfSbC
EXffPgK2fPOre3qGNm+499iTcc+G33Mw+nur7SpZyEKEOxEXGlLzyQ4UfaJbcme6
ce1XR2bFuAJKZTRei9AqPCCcUZlM51Ke92sRKw2Sfh3oius2FkOH6ipjv3U/697E
A7sKPPcw7+uvTPyLNhBzPvOk
-----END CERTIFICATE-----