Certificate:
    Data:
        Version: 3 (0x2)
        Serial Number:
            03:92:42:45:e6:7a:a2:13:84:ea:7c:7e:ce:da:6e:d4:63:67
        Signature Algorithm: sha256WithRSAEncryption
        Issuer: C=US, O=Let's Encrypt, CN=R10
        Validity
            Not Before: Aug 20 13:05:04 2024 GMT
            Not After : Nov 18 13:05:03 2024 GMT
        Subject: CN=*.g6fyiaq.mongodb-dev.net
        Subject Public Key Info:
            Public Key Algorithm: rsaEncryption
                Public-Key: (4096 bit)
                Modulus:
                    00:c2:ff:e0:09:f7:d1:30:47:e6:a1:c1:92:c2:ba:
                    cf:de:2c:86:2e:34:3a:63:f4:5a:a9:45:25:89:47:
                    eb:44:e8:fb:4e:0d:ac:99:5d:f8:42:74:07:a5:95:
                    ba:81:8b:9f:f1:64:f0:37:4e:e7:f6:59:c3:3a:08:
                    5b:82:55:cd:ea:81:94:b6:e7:ec:7a:d8:6b:09:41:
                    40:40:2f:27:b4:0e:09:d8:61:82:dc:b3:43:5b:50:
                    5d:03:78:08:ed:35:52:e6:3a:9b:ad:de:4f:73:b3:
                    56:2f:25:0d:e7:0b:61:83:e8:35:fe:73:89:e3:0e:
                    cb:7d:c1:29:00:d4:e2:a8:c2:9c:5c:b0:fd:4d:be:
                    1a:86:a7:7f:b3:d3:d9:3b:35:4c:82:b3:8d:55:0a:
                    9b:77:40:b0:dd:b1:e6:91:f4:91:dc:50:ee:96:92:
                    cc:af:11:bb:43:0a:a4:2b:5a:00:ab:9c:17:a2:e1:
                    bf:7c:9e:92:04:01:8f:bf:16:5f:85:9c:e4:5c:37:
                    97:ff:29:50:18:d7:01:66:c5:bc:51:11:ac:8a:a3:
                    de:58:5d:1c:44:e4:f4:fe:77:83:99:3f:57:71:2d:
                    2e:95:07:cc:78:b8:3c:50:4b:ea:ca:a8:20:e8:9b:
                    05:91:5c:40:ba:a9:c3:87:d5:95:d7:ab:67:33:03:
                    1d:b9:c6:d7:ef:3a:4e:aa:7d:81:bc:1b:52:fb:0e:
                    b4:7c:ce:9e:ff:d8:08:2b:33:ee:b6:d3:5c:7c:1a:
                    7e:a3:cf:cd:92:42:7f:1b:a4:36:0b:d9:51:39:c6:
                    cb:c1:65:c1:e2:84:53:30:ba:2e:f1:c3:07:71:09:
                    69:dd:ff:92:16:2c:05:1d:60:28:1c:af:5e:76:88:
                    9f:df:e7:97:fb:cd:19:48:7a:87:f6:24:e0:e1:e1:
                    ff:76:95:93:65:72:44:29:5e:69:5d:2d:26:2c:fb:
                    a7:06:63:ff:7f:02:29:82:61:42:d9:9a:0b:44:ea:
                    89:c8:bc:4a:75:17:58:05:85:04:62:1f:70:bd:79:
                    66:b6:bb:27:a6:88:c8:27:db:41:da:88:ec:4e:71:
                    0a:20:e6:e3:79:2a:ee:b5:af:99:96:72:9d:ca:c3:
                    e7:4f:9d:cd:e4:6b:22:e4:3b:54:2f:e2:e8:0c:df:
                    6f:14:f8:74:4c:21:15:28:2c:51:5e:c8:8c:86:8e:
                    e0:5e:0e:2d:e1:25:cc:47:8c:9e:b5:94:bb:34:e4:
                    43:b1:cd:55:2a:6f:1f:14:fa:c2:2f:3c:a1:ba:65:
                    f5:09:8d:1c:20:12:0d:80:33:35:f7:2f:d1:8b:ca:
                    b8:77:f0:a3:7d:fa:bd:31:ba:3a:f4:c7:5e:8d:55:
                    a7:c9:69
                Exponent: 65537 (0x10001)
        X509v3 extensions:
            X509v3 Key Usage: critical
                Digital Signature, Key Encipherment
            X509v3 Extended Key Usage: 
                TLS Web Server Authentication, TLS Web Client Authentication
            X509v3 Basic Constraints: critical
                CA:FALSE
            X509v3 Subject Key Identifier: 
                B8:6F:A5:A0:D0:70:D7:5E:AE:1E:54:5A:F1:26:DA:DD:CB:2C:5E:6F
            X509v3 Authority Key Identifier: 
                BB:BC:C3:47:A5:E4:BC:A9:C6:C3:A4:72:0C:10:8D:A2:35:E1:C8:E8
            Authority Information Access: 
                OCSP - URI:http://r10.o.lencr.org
                CA Issuers - URI:http://r10.i.lencr.org/
            X509v3 Subject Alternative Name: 
                DNS:*.g6fyiaq.mesh.mongodb-dev.net, DNS:*.g6fyiaq.mongodb-dev.net
            X509v3 Certificate Policies: 
                Policy: 2.23.140.1.2.1
            CT Precertificate SCTs: 
                Signed Certificate Timestamp:
                    Version   : v1 (0x0)
                    Log ID    : 76:FF:88:3F:0A:B6:FB:95:51:C2:61:CC:F5:87:BA:34:
                                B4:A4:CD:BB:29:DC:68:42:0A:9F:E6:67:4C:5A:3A:74
                    Timestamp : Aug 20 14:03:34.519 2024 GMT
                    Extensions: none
                    Signature : ecdsa-with-SHA256
                                30:46:02:21:00:C6:92:47:D8:40:3A:B9:0C:BD:FC:45:
                                3E:C6:28:06:80:62:0F:4A:EF:44:56:5F:8C:16:DF:C6:
                                A4:0E:4C:76:DD:02:21:00:CA:36:0F:54:6B:84:37:F3:
                                AD:50:5B:E8:DD:3D:D2:EA:34:82:72:50:D2:2C:2A:47:
                                FB:EC:16:76:5A:E8:9E:0C
                Signed Certificate Timestamp:
                    Version   : v1 (0x0)
                    Log ID    : DF:E1:56:EB:AA:05:AF:B5:9C:0F:86:71:8D:A8:C0:32:
                                4E:AE:56:D9:6E:A7:F5:A5:6A:01:D1:C1:3B:BE:52:5C
                    Timestamp : Aug 20 14:03:34.658 2024 GMT
                    Extensions: none
                    Signature : ecdsa-with-SHA256
                                30:45:02:20:23:5B:E1:35:10:78:F9:99:9F:42:7F:FE:
                                73:F4:74:1B:55:3D:B9:93:C9:A8:EE:E7:B2:61:52:12:
                                D1:C9:06:0C:02:21:00:87:EA:87:A3:3A:B2:C6:F0:EA:
                                52:5A:B2:7F:02:2E:CF:68:C8:A5:CB:54:0F:CB:CE:6A:
                                CC:E0:3A:D1:09:D3:9C
    Signature Algorithm: sha256WithRSAEncryption
    Signature Value:
        1d:11:b5:c6:7e:71:6c:63:34:8e:d4:eb:e6:42:ca:ce:fd:0d:
        9a:7d:ea:49:43:8d:de:46:ad:27:09:a6:a7:5c:58:89:2f:47:
        03:68:e2:19:0f:f6:76:be:47:0a:b6:d1:ed:5d:71:13:2a:12:
        de:5e:41:cf:e1:a3:2c:46:07:81:da:b1:86:66:61:b0:0b:70:
        19:33:4c:a3:29:e4:e6:79:f6:3f:1b:4a:51:6a:2a:0c:c1:07:
        2c:db:cc:9a:3f:17:a2:ff:ac:19:76:9e:a2:d4:9b:c9:c2:75:
        48:5c:fd:d4:5e:ff:cc:6b:f0:ea:73:da:0b:f8:fd:c5:92:42:
        ca:ca:43:51:98:e5:4b:77:b6:0f:da:d2:83:33:77:bc:60:5c:
        b7:60:12:42:10:78:5b:ed:cd:83:42:63:ba:96:de:0e:d8:9e:
        a5:97:6a:6f:70:82:7c:82:2c:ca:e3:a3:34:61:7a:70:d1:03:
        fc:89:06:1e:b4:f3:ed:b4:64:5f:54:b8:d5:6e:31:e0:fa:0b:
        f6:be:b7:6c:38:78:f8:bb:22:f2:7c:6b:44:54:3e:91:3a:8c:
        bd:4d:1b:b5:8a:a6:df:17:9b:cf:3a:bd:dc:c3:1e:c5:2c:f5:
        19:32:75:0f:7b:54:30:ab:bb:7e:db:43:fb:ed:16:d9:03:81:
        23:8a:8c:7a

-----BEGIN CERTIFICATE-----
MIIGIzCCBQugAwIBAgISA5JCReZ6ohOE6nx+ztpu1GNnMA0GCSqGSIb3DQEBCwUA
MDMxCzAJBgNVBAYTAlVTMRYwFAYDVQQKEw1MZXQncyBFbmNyeXB0MQwwCgYDVQQD
EwNSMTAwHhcNMjQwODIwMTMwNTA0WhcNMjQxMTE4MTMwNTAzWjAkMSIwIAYDVQQD
DBkqLmc2ZnlpYXEubW9uZ29kYi1kZXYubmV0MIICIjANBgkqhkiG9w0BAQEFAAOC
Ag8AMIICCgKCAgEAwv/gCffRMEfmocGSwrrP3iyGLjQ6Y/RaqUUliUfrROj7Tg2s
mV34QnQHpZW6gYuf8WTwN07n9lnDOghbglXN6oGUtufsethrCUFAQC8ntA4J2GGC
3LNDW1BdA3gI7TVS5jqbrd5Pc7NWLyUN5wthg+g1/nOJ4w7LfcEpANTiqMKcXLD9
Tb4ahqd/s9PZOzVMgrONVQqbd0Cw3bHmkfSR3FDulpLMrxG7QwqkK1oAq5wXouG/
fJ6SBAGPvxZfhZzkXDeX/ylQGNcBZsW8URGsiqPeWF0cROT0/neDmT9XcS0ulQfM
eLg8UEvqyqgg6JsFkVxAuqnDh9WV16tnMwMducbX7zpOqn2BvBtS+w60fM6e/9gI
KzPuttNcfBp+o8/NkkJ/G6Q2C9lROcbLwWXB4oRTMLou8cMHcQlp3f+SFiwFHWAo
HK9edoif3+eX+80ZSHqH9iTg4eH/dpWTZXJEKV5pXS0mLPunBmP/fwIpgmFC2ZoL
ROqJyLxKdRdYBYUEYh9wvXlmtrsnpojIJ9tB2ojsTnEKIObjeSruta+ZlnKdysPn
T53N5Gsi5DtUL+LoDN9vFPh0TCEVKCxRXsiMho7gXg4t4SXMR4yetZS7NORDsc1V
Km8fFPrCLzyhumX1CY0cIBINgDM19y/Ri8q4d/Cjffq9Mbo69MdejVWnyWkCAwEA
AaOCAj4wggI6MA4GA1UdDwEB/wQEAwIFoDAdBgNVHSUEFjAUBggrBgEFBQcDAQYI
KwYBBQUHAwIwDAYDVR0TAQH/BAIwADAdBgNVHQ4EFgQUuG+loNBw116uHlRa8Sba
3cssXm8wHwYDVR0jBBgwFoAUu7zDR6XkvKnGw6RyDBCNojXhyOgwVwYIKwYBBQUH
AQEESzBJMCIGCCsGAQUFBzABhhZodHRwOi8vcjEwLm8ubGVuY3Iub3JnMCMGCCsG
AQUFBzAChhdodHRwOi8vcjEwLmkubGVuY3Iub3JnLzBEBgNVHREEPTA7gh4qLmc2
ZnlpYXEubWVzaC5tb25nb2RiLWRldi5uZXSCGSouZzZmeWlhcS5tb25nb2RiLWRl
di5uZXQwEwYDVR0gBAwwCjAIBgZngQwBAgEwggEFBgorBgEEAdZ5AgQCBIH2BIHz
APEAdwB2/4g/Crb7lVHCYcz1h7o0tKTNuyncaEIKn+ZnTFo6dAAAAZFwGaT3AAAE
AwBIMEYCIQDGkkfYQDq5DL38RT7GKAaAYg9K70RWX4wW38akDkx23QIhAMo2D1Rr
hDfzrVBb6N090uo0gnJQ0iwqR/vsFnZa6J4MAHYA3+FW66oFr7WcD4ZxjajAMk6u
Vtlup/WlagHRwTu+UlwAAAGRcBmlggAABAMARzBFAiAjW+E1EHj5mZ9Cf/5z9HQb
VT25k8mo7ueyYVIS0ckGDAIhAIfqh6M6ssbw6lJasn8CLs9oyKXLVA/LzmrM4DrR
CdOcMA0GCSqGSIb3DQEBCwUAA4IBAQAdEbXGfnFsYzSO1OvmQsrO/Q2afepJQ43e
Rq0nCaanXFiJL0cDaOIZD/Z2vkcKttHtXXETKhLeXkHP4aMsRgeB2rGGZmGwC3AZ
M0yjKeTmefY/G0pRaioMwQcs28yaPxei/6wZdp6i1JvJwnVIXP3UXv/Ma/Dqc9oL
+P3FkkLKykNRmOVLd7YP2tKDM3e8YFy3YBJCEHhb7c2DQmO6lt4O2J6ll2pvcIJ8
gizK46M0YXpw0QP8iQYetPPttGRfVLjVbjHg+gv2vrdsOHj4uyLyfGtEVD6ROoy9
TRu1iqbfF5vPOr3cwx7FLPUZMnUPe1Qwq7t+20P77RbZA4Ejiox6
-----END CERTIFICATE-----