Certificate:
    Data:
        Version: 3 (0x2)
        Serial Number:
            4b:a8:52:93:f7:9a:2f:a2:73:06:4b:a8:04:8d:75:d0
        Signature Algorithm: sha256WithRSAEncryption
        Issuer: C=US, O=Internet Security Research Group, CN=ISRG Root X1
        Validity
            Not Before: Mar 13 00:00:00 2024 GMT
            Not After : Mar 12 23:59:59 2027 GMT
        Subject: C=US, O=Let's Encrypt, CN=R10
        Subject Public Key Info:
            Public Key Algorithm: rsaEncryption
                Public-Key: (2048 bit)
                Modulus:
                    00:cf:57:e5:e6:c4:54:12:ed:b4:47:fe:c9:27:58:
                    76:46:50:28:8c:1d:3e:88:df:05:9d:d5:b5:18:29:
                    bd:dd:b5:5a:bf:fa:f6:ce:a3:be:af:00:21:4b:62:
                    5a:5a:3c:01:2f:c5:58:03:f6:89:ff:8e:11:43:eb:
                    c1:b5:e0:14:07:96:8f:6f:1f:d7:e7:ba:81:39:09:
                    75:65:b7:c2:af:18:5b:37:26:28:e7:a3:f4:07:2b:
                    6d:1a:ff:ab:58:bc:95:ae:40:ff:e9:cb:57:c4:b5:
                    5b:7f:78:0d:18:61:bc:17:e7:54:c6:bb:49:91:cd:
                    6e:18:d1:80:85:ee:a6:65:36:bc:74:ea:bc:50:4c:
                    ea:fc:21:f3:38:16:93:94:ba:b0:d3:6b:38:06:cd:
                    16:12:7a:ca:52:75:c8:ad:76:b2:c2:9c:5d:98:45:
                    5c:6f:61:7b:c6:2d:ee:3c:13:52:86:01:d9:57:e6:
                    38:1c:df:8d:b5:1f:92:91:9a:e7:4a:1c:cc:45:a8:
                    72:55:f0:b0:e6:a3:07:ec:fd:a7:1b:66:9e:3f:48:
                    8b:71:84:71:58:c9:3a:fa:ef:5e:f2:5b:44:2b:3c:
                    74:e7:8f:b2:47:c1:07:6a:cd:9a:b7:0d:96:f7:12:
                    81:26:51:54:0a:ec:61:f6:f7:f5:e2:f2:8a:c8:95:
                    0d:8d
                Exponent: 65537 (0x10001)
        X509v3 extensions:
            X509v3 Key Usage: critical
                Digital Signature, Certificate Sign, CRL Sign
            X509v3 Extended Key Usage: 
                TLS Web Client Authentication, TLS Web Server Authentication
            X509v3 Basic Constraints: critical
                CA:TRUE, pathlen:0
            X509v3 Subject Key Identifier: 
                BB:BC:C3:47:A5:E4:BC:A9:C6:C3:A4:72:0C:10:8D:A2:35:E1:C8:E8
            X509v3 Authority Key Identifier: 
                79:B4:59:E6:7B:B6:E5:E4:01:73:80:08:88:C8:1A:58:F6:E9:9B:6E
            Authority Information Access: 
                CA Issuers - URI:http://x1.i.lencr.org/
            X509v3 Certificate Policies: 
                Policy: 2.23.140.1.2.1
            X509v3 CRL Distribution Points: 
                Full Name:
                  URI:http://x1.c.lencr.org/
    Signature Algorithm: sha256WithRSAEncryption
    Signature Value:
        92:b1:e7:41:37:eb:79:9d:81:e6:cd:e2:25:e1:3a:20:e9:90:
        44:95:a3:81:5c:cf:c3:5d:fd:bd:a0:70:d5:b1:96:28:22:0b:
        d2:f2:28:cf:0c:e7:d4:e6:43:8c:24:22:1d:c1:42:92:d1:09:
        af:9f:4b:f4:c8:70:4f:20:16:b1:5a:dd:01:f6:1f:f8:1f:61:
        6b:14:27:b0:72:8d:63:ae:ee:e2:ce:4b:cf:37:dd:bb:a3:d4:
        cd:e7:ad:50:ad:bd:bf:e3:ec:3e:62:36:70:99:31:a7:e8:8d:
        dd:ea:62:e2:12:ae:f5:9c:d4:3d:2c:0c:aa:d0:9c:79:be:ea:
        3d:5c:44:6e:96:31:63:5a:7d:d6:7e:4f:24:a0:4b:05:7f:5e:
        6f:d2:d4:ea:5f:33:4b:13:d6:57:b6:ca:de:51:b8:5d:a3:09:
        82:74:fd:c7:78:9e:b3:b9:ac:16:da:4a:2b:96:c3:b6:8b:62:
        8f:f9:74:19:a2:9e:03:de:e9:6f:9b:b0:0f:d2:a0:5a:f6:85:
        5c:c2:04:b7:c8:d5:4e:32:c4:bf:04:5d:bc:29:f6:f7:81:8f:
        0c:5d:3c:53:c9:40:90:8b:fb:b6:08:65:b9:a4:21:d5:09:e5:
        13:84:84:37:82:ce:10:28:fc:76:c2:06:25:7a:46:52:4d:da:
        53:72:a4:27:3f:62:70:ac:be:69:48:00:fb:67:0f:db:5b:a1:
        e8:d7:03:21:2d:d7:c9:f6:99:42:39:83:43:df:77:0a:12:08:
        f1:25:d6:ba:94:19:54:18:88:a5:c5:8e:e1:1a:99:93:79:6b:
        ec:1c:f9:31:40:b0:cc:32:00:df:9f:5e:e7:b4:92:ab:90:82:
        91:8d:0d:e0:1e:95:ba:59:3b:2e:4b:5f:c2:b7:46:35:52:39:
        06:c0:bd:aa:ac:52:c1:22:a0:44:97:99:f7:0c:a0:21:a7:a1:
        6c:71:47:16:17:01:68:c0:ca:a6:26:65:04:7c:b3:ae:c9:e7:
        94:55:c2:6f:9b:3c:1c:a9:f9:2e:c5:20:1a:f0:76:e0:be:ec:
        18:d6:4f:d8:25:fb:76:11:e8:bf:e6:21:0f:e8:e8:cc:b5:b6:
        a7:d5:b8:f7:9f:41:cf:61:22:46:6a:83:b6:68:97:2e:7c:ea:
        4e:95:db:23:eb:2e:c8:2b:28:84:a4:60:e9:49:f4:44:2e:3b:
        f9:ca:62:57:01:e2:5d:90:16:f9:c9:fc:7a:23:48:8e:a6:d5:
        81:72:f1:28:fa:5d:ce:fb:ed:4e:73:8f:94:2e:d2:41:94:98:
        99:db:a7:af:70:5f:f5:be:fb:02:20:bf:66:27:6c:b4:ad:fa:
        75:12:0b:2b:3e:ce:03:9e

-----BEGIN CERTIFICATE-----
MIIFBTCCAu2gAwIBAgIQS6hSk/eaL6JzBkuoBI110DANBgkqhkiG9w0BAQsFADBP
MQswCQYDVQQGEwJVUzEpMCcGA1UEChMgSW50ZXJuZXQgU2VjdXJpdHkgUmVzZWFy
Y2ggR3JvdXAxFTATBgNVBAMTDElTUkcgUm9vdCBYMTAeFw0yNDAzMTMwMDAwMDBa
Fw0yNzAzMTIyMzU5NTlaMDMxCzAJBgNVBAYTAlVTMRYwFAYDVQQKEw1MZXQncyBF
bmNyeXB0MQwwCgYDVQQDEwNSMTAwggEiMA0GCSqGSIb3DQEBAQUAA4IBDwAwggEK
AoIBAQDPV+XmxFQS7bRH/sknWHZGUCiMHT6I3wWd1bUYKb3dtVq/+vbOo76vACFL
YlpaPAEvxVgD9on/jhFD68G14BQHlo9vH9fnuoE5CXVlt8KvGFs3Jijno/QHK20a
/6tYvJWuQP/py1fEtVt/eA0YYbwX51TGu0mRzW4Y0YCF7qZlNrx06rxQTOr8IfM4
FpOUurDTazgGzRYSespSdcitdrLCnF2YRVxvYXvGLe48E1KGAdlX5jgc3421H5KR
mudKHMxFqHJV8LDmowfs/acbZp4/SItxhHFYyTr6717yW0QrPHTnj7JHwQdqzZq3
DZb3EoEmUVQK7GH29/Xi8orIlQ2NAgMBAAGjgfgwgfUwDgYDVR0PAQH/BAQDAgGG
MB0GA1UdJQQWMBQGCCsGAQUFBwMCBggrBgEFBQcDATASBgNVHRMBAf8ECDAGAQH/
AgEAMB0GA1UdDgQWBBS7vMNHpeS8qcbDpHIMEI2iNeHI6DAfBgNVHSMEGDAWgBR5
tFnme7bl5AFzgAiIyBpY9umbbjAyBggrBgEFBQcBAQQmMCQwIgYIKwYBBQUHMAKG
Fmh0dHA6Ly94MS5pLmxlbmNyLm9yZy8wEwYDVR0gBAwwCjAIBgZngQwBAgEwJwYD
VR0fBCAwHjAcoBqgGIYWaHR0cDovL3gxLmMubGVuY3Iub3JnLzANBgkqhkiG9w0B
AQsFAAOCAgEAkrHnQTfreZ2B5s3iJeE6IOmQRJWjgVzPw139vaBw1bGWKCIL0vIo
zwzn1OZDjCQiHcFCktEJr59L9MhwTyAWsVrdAfYf+B9haxQnsHKNY67u4s5Lzzfd
u6PUzeetUK29v+PsPmI2cJkxp+iN3epi4hKu9ZzUPSwMqtCceb7qPVxEbpYxY1p9
1n5PJKBLBX9eb9LU6l8zSxPWV7bK3lG4XaMJgnT9x3ies7msFtpKK5bDtotij/l0
GaKeA97pb5uwD9KgWvaFXMIEt8jVTjLEvwRdvCn294GPDF08U8lAkIv7tghluaQh
1QnlE4SEN4LOECj8dsIGJXpGUk3aU3KkJz9icKy+aUgA+2cP21uh6NcDIS3XyfaZ
QjmDQ993ChII8SXWupQZVBiIpcWO4RqZk3lr7Bz5MUCwzDIA359e57SSq5CCkY0N
4B6Vulk7LktfwrdGNVI5BsC9qqxSwSKgRJeZ9wygIaehbHFHFhcBaMDKpiZlBHyz
rsnnlFXCb5s8HKn5LsUgGvB24L7sGNZP2CX7dhHov+YhD+jozLW2p9W4959Bz2Ei
RmqDtmiXLnzqTpXbI+suyCsohKRg6Un0RC47+cpiVwHiXZAW+cn8eiNIjqbVgXLx
KPpdzvvtTnOPlC7SQZSYmdunr3Bf9b77AiC/ZidstK36dRILKz7OA54=
-----END CERTIFICATE-----