Certificate:
    Data:
        Version: 3 (0x2)
        Serial Number:
            03:10:94:1a:54:cc:b3:27:3c:ad:5f:e9:e7:60:69:ed:b9:4e
        Signature Algorithm: sha256WithRSAEncryption
        Issuer: C=US, O=Let's Encrypt, CN=R10
        Validity
            Not Before: Nov  4 12:07:32 2024 GMT
            Not After : Feb  2 12:07:31 2025 GMT
        Subject: CN=*.g6fyiaq.mongodb-dev.net
        Subject Public Key Info:
            Public Key Algorithm: rsaEncryption
                Public-Key: (4096 bit)
                Modulus:
                    00:be:52:41:09:c0:22:8a:8d:83:f3:c3:d3:a0:f8:
                    87:31:7f:de:b5:25:b5:6c:f7:22:ea:d4:c2:6a:5b:
                    ed:c1:9d:ee:e5:3d:15:d5:85:83:18:5f:ce:71:a8:
                    c0:02:5f:81:65:73:7e:cc:ad:71:a8:63:c0:13:ef:
                    0d:e3:d2:4b:7b:8f:f4:4c:64:5d:33:10:de:5e:94:
                    01:2d:a0:94:46:c5:be:a1:85:b6:7a:bf:b9:f6:b6:
                    62:53:72:2b:de:e0:ac:70:6d:c2:02:73:e3:e4:fa:
                    57:92:71:b9:39:4f:ce:85:1e:fa:d7:89:49:18:89:
                    01:ef:a3:50:d9:d8:64:25:df:42:74:06:d1:2c:b8:
                    27:98:92:b1:af:77:b5:46:d5:3a:d8:1b:0b:33:7b:
                    24:f8:7d:fc:85:80:2c:d5:2f:c4:35:f8:5e:5e:8a:
                    45:6d:01:6d:ef:0e:a5:4e:6b:3b:e7:14:93:30:9c:
                    d3:66:4a:0c:af:17:7c:a1:75:65:ff:43:28:df:af:
                    e8:73:59:d7:84:79:ec:33:6f:38:af:9a:d5:f3:89:
                    97:bb:eb:a0:61:d5:d6:0b:c7:d5:cd:f3:9e:f9:52:
                    04:dd:58:c1:8d:ab:fa:6a:9c:1a:14:78:92:73:32:
                    d3:2b:82:f1:bf:a0:7f:9e:c6:f6:02:a6:0b:29:ff:
                    c0:0a:28:47:b2:cf:03:0f:4d:09:9a:de:57:e6:bf:
                    b3:3d:c4:e9:c2:40:75:51:c4:9e:d2:6a:6d:a3:64:
                    ee:a5:ac:22:73:2b:27:81:a1:77:f5:48:96:03:5e:
                    5b:68:7f:27:f8:eb:ea:ff:67:56:c1:c3:10:2f:41:
                    04:e6:ef:f2:de:cf:9e:57:04:02:c1:dc:af:02:b7:
                    07:60:6e:29:98:7d:24:8b:80:e8:c1:3f:93:90:01:
                    7e:21:00:74:78:e5:68:b5:57:37:5c:6d:2e:40:52:
                    fd:17:26:a5:d2:26:c4:2f:3e:80:35:39:0a:70:4a:
                    f4:dd:ed:8a:1f:41:a6:6c:b7:90:e0:ad:1e:f2:b6:
                    ec:92:12:ba:c3:78:75:ea:3e:5a:d0:92:52:11:9b:
                    d6:f8:f0:66:d1:d7:db:07:32:7b:bb:b1:f7:15:7c:
                    c1:0e:6a:89:bb:22:31:c7:73:6e:0e:4d:ff:fe:3c:
                    33:91:d9:6d:7b:17:0b:88:e9:d9:5e:1e:dc:18:f8:
                    72:81:b7:fb:2a:40:4b:da:47:32:e4:5f:d0:f9:d6:
                    9e:2a:15:32:5e:07:b8:41:59:bb:37:e9:d7:75:fd:
                    c9:ba:c8:ee:b6:91:d0:ad:36:b3:8e:20:18:21:f7:
                    88:0a:67:93:76:a3:ec:03:61:36:19:32:42:e2:f1:
                    c0:fe:91
                Exponent: 65537 (0x10001)
        X509v3 extensions:
            X509v3 Key Usage: critical
                Digital Signature, Key Encipherment
            X509v3 Extended Key Usage: 
                TLS Web Server Authentication, TLS Web Client Authentication
            X509v3 Basic Constraints: critical
                CA:FALSE
            X509v3 Subject Key Identifier: 
                16:A9:BA:C6:C3:EE:83:45:AF:53:62:D8:76:5A:BB:82:5C:93:C2:4A
            X509v3 Authority Key Identifier: 
                BB:BC:C3:47:A5:E4:BC:A9:C6:C3:A4:72:0C:10:8D:A2:35:E1:C8:E8
            Authority Information Access: 
                OCSP - URI:http://r10.o.lencr.org
                CA Issuers - URI:http://r10.i.lencr.org/
            X509v3 Subject Alternative Name: 
                DNS:*.g6fyiaq.mesh.mongodb-dev.net, DNS:*.g6fyiaq.mongodb-dev.net
            X509v3 Certificate Policies: 
                Policy: 2.23.140.1.2.1
            CT Precertificate SCTs: 
                Signed Certificate Timestamp:
                    Version   : v1 (0x0)
                    Log ID    : E6:D2:31:63:40:77:8C:C1:10:41:06:D7:71:B9:CE:C1:
                                D2:40:F6:96:84:86:FB:BA:87:32:1D:FD:1E:37:8E:50
                    Timestamp : Nov  4 13:06:02.672 2024 GMT
                    Extensions: none
                    Signature : ecdsa-with-SHA256
                                30:44:02:20:57:F3:C2:E9:C5:52:6F:34:F8:AB:7E:55:
                                F4:D2:70:17:D5:5D:94:FF:DA:7F:AD:C1:D1:6B:04:BD:
                                3C:E3:B0:8C:02:20:22:67:7B:C7:D5:C3:F3:26:5F:C7:
                                CB:19:30:8D:52:7E:ED:6B:21:19:EC:5F:17:A9:1D:45:
                                32:36:4A:F4:33:E5
                Signed Certificate Timestamp:
                    Version   : v1 (0x0)
                    Log ID    : 13:4A:DF:1A:B5:98:42:09:78:0C:6F:EF:4C:7A:91:A4:
                                16:B7:23:49:CE:58:57:6A:DF:AE:DA:A7:C2:AB:E0:22
                    Timestamp : Nov  4 13:06:02.699 2024 GMT
                    Extensions: none
                    Signature : ecdsa-with-SHA256
                                30:44:02:20:1A:B2:DE:AE:0B:1F:E8:D9:37:07:F2:02:
                                8E:A7:AB:E1:BD:A4:0F:33:E0:95:3D:25:6E:10:38:6E:
                                F9:48:FA:80:02:20:49:55:9A:DA:DE:EE:94:FB:EB:BE:
                                FA:DA:95:D2:39:F0:BE:40:5B:BF:F9:5F:35:57:3B:09:
                                BC:6E:58:4E:C9:58
    Signature Algorithm: sha256WithRSAEncryption
    Signature Value:
        87:ad:98:99:d1:a1:83:2b:b1:f2:4f:54:08:c3:00:69:b3:4a:
        fa:9c:5a:10:95:59:dc:2d:64:43:02:95:3c:00:2b:66:34:1b:
        1d:fd:c7:9c:f8:a0:0d:63:4e:29:0b:b0:37:72:3f:99:9b:84:
        23:f6:2a:73:80:bb:73:7d:c6:c9:4e:37:83:18:47:68:e3:01:
        99:12:d7:5e:88:af:7b:8c:45:72:0a:02:56:50:2d:b0:d0:4e:
        a4:61:01:c5:4f:2d:0a:cf:c7:07:b7:db:65:f0:50:b2:b4:aa:
        7f:e4:f8:09:eb:8a:3e:4e:05:b9:de:17:83:4c:0d:b9:f0:07:
        dc:d4:45:70:97:db:78:c8:b5:0e:ba:a5:29:fe:b4:fa:b2:2b:
        fe:0a:31:b5:1b:fb:f4:b4:fb:27:a7:c8:db:97:f3:f2:d2:66:
        db:6b:03:71:49:53:10:9e:0a:f9:b3:f6:5b:83:bf:d0:72:a2:
        be:b4:84:94:be:a0:fa:1e:9e:bb:09:76:14:d5:8f:ab:75:4a:
        7a:73:20:6f:45:60:84:43:4e:9d:3a:a8:4a:8f:90:75:47:5d:
        78:8a:e2:4d:94:7e:67:2e:6c:2e:47:cf:b4:86:15:2c:ab:2c:
        a3:b6:22:cf:e9:0a:12:9c:ff:c6:26:2e:8b:3b:74:1f:09:cf:
        be:f2:88:f1

-----BEGIN CERTIFICATE-----
MIIGIDCCBQigAwIBAgISAxCUGlTMsyc8rV/p52Bp7blOMA0GCSqGSIb3DQEBCwUA
MDMxCzAJBgNVBAYTAlVTMRYwFAYDVQQKEw1MZXQncyBFbmNyeXB0MQwwCgYDVQQD
EwNSMTAwHhcNMjQxMTA0MTIwNzMyWhcNMjUwMjAyMTIwNzMxWjAkMSIwIAYDVQQD
DBkqLmc2ZnlpYXEubW9uZ29kYi1kZXYubmV0MIICIjANBgkqhkiG9w0BAQEFAAOC
Ag8AMIICCgKCAgEAvlJBCcAiio2D88PToPiHMX/etSW1bPci6tTCalvtwZ3u5T0V
1YWDGF/OcajAAl+BZXN+zK1xqGPAE+8N49JLe4/0TGRdMxDeXpQBLaCURsW+oYW2
er+59rZiU3Ir3uCscG3CAnPj5PpXknG5OU/OhR7614lJGIkB76NQ2dhkJd9CdAbR
LLgnmJKxr3e1RtU62BsLM3sk+H38hYAs1S/ENfheXopFbQFt7w6lTms75xSTMJzT
ZkoMrxd8oXVl/0Mo36/oc1nXhHnsM284r5rV84mXu+ugYdXWC8fVzfOe+VIE3VjB
jav6apwaFHiSczLTK4Lxv6B/nsb2AqYLKf/ACihHss8DD00Jmt5X5r+zPcTpwkB1
UcSe0mpto2TupawicysngaF39UiWA15baH8n+Ovq/2dWwcMQL0EE5u/y3s+eVwQC
wdyvArcHYG4pmH0ki4DowT+TkAF+IQB0eOVotVc3XG0uQFL9Fyal0ibELz6ANTkK
cEr03e2KH0GmbLeQ4K0e8rbskhK6w3h16j5a0JJSEZvW+PBm0dfbBzJ7u7H3FXzB
DmqJuyIxx3NuDk3//jwzkdltexcLiOnZXh7cGPhygbf7KkBL2kcy5F/Q+daeKhUy
Xge4QVm7N+nXdf3JusjutpHQrTazjiAYIfeICmeTdqPsA2E2GTJC4vHA/pECAwEA
AaOCAjswggI3MA4GA1UdDwEB/wQEAwIFoDAdBgNVHSUEFjAUBggrBgEFBQcDAQYI
KwYBBQUHAwIwDAYDVR0TAQH/BAIwADAdBgNVHQ4EFgQUFqm6xsPug0WvU2LYdlq7
glyTwkowHwYDVR0jBBgwFoAUu7zDR6XkvKnGw6RyDBCNojXhyOgwVwYIKwYBBQUH
AQEESzBJMCIGCCsGAQUFBzABhhZodHRwOi8vcjEwLm8ubGVuY3Iub3JnMCMGCCsG
AQUFBzAChhdodHRwOi8vcjEwLmkubGVuY3Iub3JnLzBEBgNVHREEPTA7gh4qLmc2
ZnlpYXEubWVzaC5tb25nb2RiLWRldi5uZXSCGSouZzZmeWlhcS5tb25nb2RiLWRl
di5uZXQwEwYDVR0gBAwwCjAIBgZngQwBAgEwggECBgorBgEEAdZ5AgQCBIHzBIHw
AO4AdQDm0jFjQHeMwRBBBtdxuc7B0kD2loSG+7qHMh39HjeOUAAAAZL3SEkwAAAE
AwBGMEQCIFfzwunFUm80+Kt+VfTScBfVXZT/2n+twdFrBL0847CMAiAiZ3vH1cPz
Jl/HyxkwjVJ+7WshGexfF6kdRTI2SvQz5QB1ABNK3xq1mEIJeAxv70x6kaQWtyNJ
zlhXat+u2qfCq+AiAAABkvdISUsAAAQDAEYwRAIgGrLergsf6Nk3B/ICjqer4b2k
DzPglT0lbhA4bvlI+oACIElVmtre7pT767762pXSOfC+QFu/+V81VzsJvG5YTslY
MA0GCSqGSIb3DQEBCwUAA4IBAQCHrZiZ0aGDK7HyT1QIwwBps0r6nFoQlVncLWRD
ApU8ACtmNBsd/cec+KANY04pC7A3cj+Zm4Qj9ipzgLtzfcbJTjeDGEdo4wGZEtde
iK97jEVyCgJWUC2w0E6kYQHFTy0Kz8cHt9tl8FCytKp/5PgJ64o+TgW53heDTA25
8Afc1EVwl9t4yLUOuqUp/rT6siv+CjG1G/v0tPsnp8jbl/Py0mbbawNxSVMQngr5
s/Zbg7/QcqK+tISUvqD6Hp67CXYU1Y+rdUp6cyBvRWCEQ06dOqhKj5B1R114iuJN
lH5nLmwuR8+0hhUsqyyjtiLP6QoSnP/GJi6LO3QfCc++8ojx
-----END CERTIFICATE-----