Certificate:
    Data:
        Version: 3 (0x2)
        Serial Number:
            0e:fb:8b:f4:73:3e:98:df:1d:48:6d:da:d2:08:ca:0d
        Signature Algorithm: sha256WithRSAEncryption
        Issuer: C = US, O = DigiCert Inc, CN = DigiCert TLS RSA SHA256 2020 CA1
        Validity
            Not Before: May  5 00:00:00 2022 GMT
            Not After : Jun  2 23:59:59 2023 GMT
        Subject: C = US, ST = New York, L = New York, O = "MongoDB, Inc.", CN = *.mongodb-dev.net
        Subject Public Key Info:
            Public Key Algorithm: rsaEncryption
                Public-Key: (2048 bit)
                Modulus:
                    00:b3:40:eb:4a:26:af:07:a3:ea:58:c7:3b:50:5c:
                    94:47:5a:0a:9d:86:b7:bb:03:9c:5a:4a:23:5e:7c:
                    b1:cd:fc:4f:56:d5:05:4e:ce:f8:f2:b1:55:09:13:
                    ff:cc:e6:a4:fb:41:2e:0c:8f:1a:a3:ea:4b:a3:51:
                    c6:f7:91:e6:47:49:ae:3b:94:df:68:80:68:2a:62:
                    a2:d1:42:5b:89:c1:70:2b:1c:a7:84:df:98:86:1a:
                    69:eb:88:c4:51:4d:c9:7f:10:90:a0:0a:c5:7c:07:
                    12:9e:c2:94:e1:88:2e:2d:21:94:a4:8a:27:1f:20:
                    1b:6f:14:27:21:0c:4b:6f:72:5b:18:e7:75:7a:90:
                    4c:a8:18:e7:4d:0f:ed:e4:03:f4:10:b7:65:23:9f:
                    b2:5f:0d:eb:85:3c:b0:34:d3:9a:2c:80:85:2e:53:
                    35:19:44:03:13:b3:df:fb:0d:db:80:6f:12:60:1a:
                    b8:d6:25:0d:6d:23:fd:a6:d8:aa:dc:82:73:cc:d2:
                    26:9b:71:50:9a:09:cf:ef:60:ba:d1:22:cb:fb:2f:
                    69:a2:a6:c6:a9:30:77:1c:d7:bc:c2:6e:6d:e6:69:
                    65:f3:91:3d:ee:04:f9:a0:41:5f:50:dc:75:15:4d:
                    15:43:76:35:e9:97:65:7a:d8:3f:00:4d:44:29:7c:
                    5d:25
                Exponent: 65537 (0x10001)
        X509v3 extensions:
            X509v3 Authority Key Identifier: 
                B7:6B:A2:EA:A8:AA:84:8C:79:EA:B4:DA:0F:98:B2:C5:95:76:B9:F4
            X509v3 Subject Key Identifier: 
                22:7C:2F:C7:F4:D6:75:0E:A1:02:32:21:1A:A6:29:25:46:48:B8:6A
            X509v3 Subject Alternative Name: 
                DNS:*.mongodb-dev.net, DNS:mongodb-dev.net
            X509v3 Key Usage: critical
                Digital Signature, Key Encipherment
            X509v3 Extended Key Usage: 
                TLS Web Server Authentication, TLS Web Client Authentication
            X509v3 CRL Distribution Points: 
                Full Name:
                  URI:http://crl3.digicert.com/DigiCertTLSRSASHA2562020CA1-4.crl
                Full Name:
                  URI:http://crl4.digicert.com/DigiCertTLSRSASHA2562020CA1-4.crl
            X509v3 Certificate Policies: 
                Policy: 2.23.140.1.2.2
                  CPS: http://www.digicert.com/CPS
            Authority Information Access: 
                OCSP - URI:http://ocsp.digicert.com
                CA Issuers - URI:http://cacerts.digicert.com/DigiCertTLSRSASHA2562020CA1-1.crt
            X509v3 Basic Constraints: 
                CA:FALSE
            CT Precertificate SCTs: 
                Signed Certificate Timestamp:
                    Version   : v1 (0x0)
                    Log ID    : E8:3E:D0:DA:3E:F5:06:35:32:E7:57:28:BC:89:6B:C9:
                                03:D3:CB:D1:11:6B:EC:EB:69:E1:77:7D:6D:06:BD:6E
                    Timestamp : May  5 16:12:54.726 2022 GMT
                    Extensions: none
                    Signature : ecdsa-with-SHA256
                                30:45:02:21:00:C4:D8:1A:00:3C:BD:E5:E1:13:B2:5D:
                                DA:7F:69:A9:4C:83:AB:CC:C2:00:9F:FB:98:09:44:5F:
                                93:0C:92:CD:F7:02:20:2D:E2:D6:A4:3B:61:06:25:1E:
                                22:2F:5E:2A:D4:76:0D:FE:12:E9:91:65:26:69:25:6C:
                                53:E4:C3:2F:4B:89:AF
                Signed Certificate Timestamp:
                    Version   : v1 (0x0)
                    Log ID    : 35:CF:19:1B:BF:B1:6C:57:BF:0F:AD:4C:6D:42:CB:BB:
                                B6:27:20:26:51:EA:3F:E1:2A:EF:A8:03:C3:3B:D6:4C
                    Timestamp : May  5 16:12:54.786 2022 GMT
                    Extensions: none
                    Signature : ecdsa-with-SHA256
                                30:45:02:20:46:F0:9E:AE:32:A7:A7:CA:22:C6:64:EE:
                                7F:9F:C6:EA:3C:BE:3B:2F:E2:09:C0:ED:A9:E1:EE:16:
                                F9:F1:6C:1E:02:21:00:BD:1A:42:73:A5:CE:E6:8A:CE:
                                BC:4C:3E:42:D4:0B:FC:89:3B:D5:1E:29:E8:38:F7:44:
                                5B:22:9A:FA:1D:B3:57
                Signed Certificate Timestamp:
                    Version   : v1 (0x0)
                    Log ID    : B7:3E:FB:24:DF:9C:4D:BA:75:F2:39:C5:BA:58:F4:6C:
                                5D:FC:42:CF:7A:9F:35:C4:9E:1D:09:81:25:ED:B4:99
                    Timestamp : May  5 16:12:54.779 2022 GMT
                    Extensions: none
                    Signature : ecdsa-with-SHA256
                                30:45:02:20:2F:72:9B:CC:88:04:F1:3B:8B:BC:01:85:
                                B2:16:B4:AF:4A:CB:45:E8:0B:29:D1:77:6C:2C:56:0C:
                                8D:1C:61:7C:02:21:00:A4:67:AC:08:40:83:82:9E:22:
                                75:3A:92:91:1E:12:23:01:B9:04:3B:A3:60:5F:E8:D1:
                                59:4E:88:DB:C5:DE:DD
    Signature Algorithm: sha256WithRSAEncryption
    Signature Value:
        33:bb:fa:5f:59:e5:d0:5c:a1:22:4e:73:c8:35:e4:d7:8c:28:
        67:b2:85:b0:1b:0c:e4:ec:aa:a7:49:09:e7:52:63:e5:8a:51:
        a9:de:b8:35:74:66:0f:66:fa:b4:91:1f:b0:3a:5e:0a:21:0d:
        a2:73:5b:1f:2c:fa:cd:59:72:85:8c:db:95:33:66:64:a2:e7:
        6f:0d:9e:cf:a7:e3:de:82:7a:24:55:56:f8:b8:c0:95:0d:ba:
        07:01:fe:ce:35:48:2f:23:2d:29:7b:6b:00:e6:f7:2c:31:6f:
        9c:67:35:90:f0:65:9f:41:f9:bf:ad:2c:e9:8e:f0:c4:cf:8c:
        5d:02:c4:8e:22:7f:62:bb:62:21:cf:9d:59:7b:96:4e:c4:7d:
        ca:a2:6f:37:66:34:88:ac:a3:c1:6e:95:ec:e3:3a:07:27:6d:
        31:b7:38:70:ce:93:42:86:20:3b:f8:d8:f9:ef:a9:9e:43:4f:
        ed:9b:4b:c7:90:5b:d1:9b:16:66:8f:42:11:8a:97:bb:c7:e1:
        b5:67:f5:a1:f4:7b:8b:f0:88:a8:5f:39:83:4c:2e:3d:e9:8f:
        34:b8:fb:e8:1e:e2:0f:90:02:7c:ad:c7:9e:00:c2:fa:0a:41:
        43:61:e2:2b:6d:f8:b7:fa:70:71:04:f3:2c:7f:c0:16:7a:6b:
        a1:34:45:c0

-----BEGIN CERTIFICATE-----
MIIGxDCCBaygAwIBAgIQDvuL9HM+mN8dSG3a0gjKDTANBgkqhkiG9w0BAQsFADBP
MQswCQYDVQQGEwJVUzEVMBMGA1UEChMMRGlnaUNlcnQgSW5jMSkwJwYDVQQDEyBE
aWdpQ2VydCBUTFMgUlNBIFNIQTI1NiAyMDIwIENBMTAeFw0yMjA1MDUwMDAwMDBa
Fw0yMzA2MDIyMzU5NTlaMGcxCzAJBgNVBAYTAlVTMREwDwYDVQQIEwhOZXcgWW9y
azERMA8GA1UEBxMITmV3IFlvcmsxFjAUBgNVBAoTDU1vbmdvREIsIEluYy4xGjAY
BgNVBAMMESoubW9uZ29kYi1kZXYubmV0MIIBIjANBgkqhkiG9w0BAQEFAAOCAQ8A
MIIBCgKCAQEAs0DrSiavB6PqWMc7UFyUR1oKnYa3uwOcWkojXnyxzfxPVtUFTs74
8rFVCRP/zOak+0EuDI8ao+pLo1HG95HmR0muO5TfaIBoKmKi0UJbicFwKxynhN+Y
hhpp64jEUU3JfxCQoArFfAcSnsKU4YguLSGUpIonHyAbbxQnIQxLb3JbGOd1epBM
qBjnTQ/t5AP0ELdlI5+yXw3rhTywNNOaLICFLlM1GUQDE7Pf+w3bgG8SYBq41iUN
bSP9ptiq3IJzzNImm3FQmgnP72C60SLL+y9poqbGqTB3HNe8wm5t5mll85E97gT5
oEFfUNx1FU0VQ3Y16Zdletg/AE1EKXxdJQIDAQABo4IDgjCCA34wHwYDVR0jBBgw
FoAUt2ui6qiqhIx56rTaD5iyxZV2ufQwHQYDVR0OBBYEFCJ8L8f01nUOoQIyIRqm
KSVGSLhqMC0GA1UdEQQmMCSCESoubW9uZ29kYi1kZXYubmV0gg9tb25nb2RiLWRl
di5uZXQwDgYDVR0PAQH/BAQDAgWgMB0GA1UdJQQWMBQGCCsGAQUFBwMBBggrBgEF
BQcDAjCBjwYDVR0fBIGHMIGEMECgPqA8hjpodHRwOi8vY3JsMy5kaWdpY2VydC5j
b20vRGlnaUNlcnRUTFNSU0FTSEEyNTYyMDIwQ0ExLTQuY3JsMECgPqA8hjpodHRw
Oi8vY3JsNC5kaWdpY2VydC5jb20vRGlnaUNlcnRUTFNSU0FTSEEyNTYyMDIwQ0Ex
LTQuY3JsMD4GA1UdIAQ3MDUwMwYGZ4EMAQICMCkwJwYIKwYBBQUHAgEWG2h0dHA6
Ly93d3cuZGlnaWNlcnQuY29tL0NQUzB/BggrBgEFBQcBAQRzMHEwJAYIKwYBBQUH
MAGGGGh0dHA6Ly9vY3NwLmRpZ2ljZXJ0LmNvbTBJBggrBgEFBQcwAoY9aHR0cDov
L2NhY2VydHMuZGlnaWNlcnQuY29tL0RpZ2lDZXJ0VExTUlNBU0hBMjU2MjAyMENB
MS0xLmNydDAJBgNVHRMEAjAAMIIBfgYKKwYBBAHWeQIEAgSCAW4EggFqAWgAdgDo
PtDaPvUGNTLnVyi8iWvJA9PL0RFr7Otp4Xd9bQa9bgAAAYCU/uZGAAAEAwBHMEUC
IQDE2BoAPL3l4ROyXdp/aalMg6vMwgCf+5gJRF+TDJLN9wIgLeLWpDthBiUeIi9e
KtR2Df4S6ZFlJmklbFPkwy9Lia8AdgA1zxkbv7FsV78PrUxtQsu7ticgJlHqP+Eq
76gDwzvWTAAAAYCU/uaCAAAEAwBHMEUCIEbwnq4yp6fKIsZk7n+fxuo8vjsv4gnA
7anh7hb58WweAiEAvRpCc6XO5orOvEw+QtQL/Ik71R4p6Dj3RFsimvods1cAdgC3
Pvsk35xNunXyOcW6WPRsXfxCz3qfNcSeHQmBJe20mQAAAYCU/uZ7AAAEAwBHMEUC
IC9ym8yIBPE7i7wBhbIWtK9Ky0XoCynRd2wsVgyNHGF8AiEApGesCECDgp4idTqS
kR4SIwG5BDujYF/o0VlOiNvF3t0wDQYJKoZIhvcNAQELBQADggEBADO7+l9Z5dBc
oSJOc8g15NeMKGeyhbAbDOTsqqdJCedSY+WKUaneuDV0Zg9m+rSRH7A6XgohDaJz
Wx8s+s1ZcoWM25UzZmSi528Nns+n496CeiRVVvi4wJUNugcB/s41SC8jLSl7awDm
9ywxb5xnNZDwZZ9B+b+tLOmO8MTPjF0CxI4if2K7YiHPnVl7lk7EfcqibzdmNIis
o8FulezjOgcnbTG3OHDOk0KGIDv42PnvqZ5DT+2bS8eQW9GbFmaPQhGKl7vH4bVn
9aH0e4vwiKhfOYNMLj3pjzS4++ge4g+QAnytx54AwvoKQUNh4itt+Lf6cHEE8yx/
wBZ6a6E0RcA=
-----END CERTIFICATE-----