Certificate:
    Data:
        Version: 3 (0x2)
        Serial Number:
            05:d8:c7:c9:62:ab:ba:d9:4c:bf:4f:e2:ab:33:5c:f1:78:b2
        Signature Algorithm: sha256WithRSAEncryption
        Issuer: C=US, O=Let's Encrypt, CN=R10
        Validity
            Not Before: Jun 20 09:14:41 2025 GMT
            Not After : Sep 18 09:14:40 2025 GMT
        Subject: CN=*.g6fyiaq.mongodb-dev.net
        Subject Public Key Info:
            Public Key Algorithm: rsaEncryption
                Public-Key: (4096 bit)
                Modulus:
                    00:b5:69:8b:af:4b:a8:a0:ef:d6:13:78:c4:f1:9b:
                    ef:a2:8e:93:8d:0b:c2:47:cb:a1:97:d8:31:03:c6:
                    2b:db:36:50:5d:26:86:d5:54:e8:4a:cf:c1:86:77:
                    83:02:64:bf:43:f8:67:f5:70:9b:f8:bc:65:47:31:
                    1a:76:07:64:b7:3b:a3:60:05:b8:a8:ac:d7:ce:16:
                    aa:4e:99:64:82:d8:18:47:a8:ab:4d:95:4f:98:96:
                    f3:e4:cf:53:4a:83:fb:58:98:42:52:09:7b:cf:ec:
                    03:b5:64:31:ec:78:ed:5d:0b:da:88:ef:46:6e:73:
                    29:ce:49:1d:fd:34:ed:24:f1:cb:a8:46:91:94:e7:
                    3a:55:fb:24:b5:fe:04:04:58:3b:98:ad:36:02:d7:
                    46:fe:e2:1b:f5:72:d8:c0:9c:96:9f:cd:e4:e1:c2:
                    cc:90:8c:66:5e:10:06:1a:dd:4a:b0:87:d1:9b:70:
                    73:58:42:bb:fe:88:8a:77:31:85:7b:52:8d:e7:2e:
                    68:49:96:e4:53:6f:fa:fa:4a:91:3d:28:c7:78:64:
                    5e:e6:b6:1d:47:c2:6b:9a:d1:52:ef:e9:35:0f:af:
                    ce:f8:4f:a4:32:a8:5c:f5:0d:39:95:98:85:33:14:
                    d8:b2:3c:d1:20:3f:ab:44:66:d3:19:7d:4e:5a:00:
                    86:50:94:33:d5:05:47:9f:f6:15:09:2c:f1:5a:5f:
                    0f:bc:07:15:47:61:85:d5:0a:c2:51:48:a8:d1:6f:
                    0a:24:8d:fe:f5:ef:7f:46:b5:ca:69:e7:1c:fb:df:
                    9b:48:90:87:2a:33:55:04:86:33:96:8a:b5:6d:1e:
                    11:15:47:56:60:28:2a:7f:dd:a4:44:14:53:a7:cb:
                    85:de:45:d7:0a:26:29:35:10:98:82:1c:72:91:2f:
                    e7:03:c6:23:30:a2:e9:61:e7:74:6c:96:9d:51:5a:
                    84:32:be:62:c5:d9:f9:a5:6c:01:f2:ca:57:a0:c6:
                    e0:9e:89:2d:a9:3f:83:92:23:ff:8b:b1:37:b2:2a:
                    71:d2:75:37:8a:28:71:c4:41:42:fd:f1:59:a1:7d:
                    cd:51:71:52:15:1e:7c:28:56:82:d6:e3:8e:c5:0d:
                    d0:41:e2:27:3a:6c:d3:2c:15:92:c7:f8:cf:26:29:
                    dc:9f:f7:2f:af:32:63:11:89:6c:4e:7e:21:08:99:
                    32:48:a1:db:e5:fc:95:d6:8d:dd:e9:15:03:42:e1:
                    94:20:4f:ba:ef:0e:ac:d9:99:d1:99:01:0b:74:2d:
                    f8:8a:18:db:75:32:69:5c:f4:63:08:ea:b8:42:4f:
                    14:aa:30:3c:b0:c7:a2:ff:67:68:a8:f1:bc:3a:f0:
                    52:ef:e3
                Exponent: 65537 (0x10001)
        X509v3 extensions:
            X509v3 Key Usage: critical
                Digital Signature, Key Encipherment
            X509v3 Extended Key Usage: 
                TLS Web Server Authentication, TLS Web Client Authentication
            X509v3 Basic Constraints: critical
                CA:FALSE
            X509v3 Subject Key Identifier: 
                B2:31:60:0E:14:5F:5E:DA:26:4B:EA:D9:7C:F4:AF:EE:C9:22:41:7E
            X509v3 Authority Key Identifier: 
                BB:BC:C3:47:A5:E4:BC:A9:C6:C3:A4:72:0C:10:8D:A2:35:E1:C8:E8
            Authority Information Access: 
                OCSP - URI:http://r10.o.lencr.org
                CA Issuers - URI:http://r10.i.lencr.org/
            X509v3 Subject Alternative Name: 
                DNS:*.g6fyiaq.mesh.mongodb-dev.net, DNS:*.g6fyiaq.mongodb-dev.net
            X509v3 Certificate Policies: 
                Policy: 2.23.140.1.2.1
            X509v3 CRL Distribution Points: 
                Full Name:
                  URI:http://r10.c.lencr.org/51.crl

            CT Precertificate SCTs: 
                Signed Certificate Timestamp:
                    Version   : v1 (0x0)
                    Log ID    : ED:3C:4B:D6:E8:06:C2:A4:A2:00:57:DB:CB:24:E2:38:
                                01:DF:51:2F:ED:C4:86:C5:70:0F:20:DD:B7:3E:3F:E0
                    Timestamp : Jun 20 10:13:12.240 2025 GMT
                    Extensions: none
                    Signature : ecdsa-with-SHA256
                                30:45:02:20:65:DB:29:2D:FD:70:BE:01:14:66:55:61:
                                4F:F9:F4:1B:4C:87:92:2E:43:0F:F5:F4:CA:39:50:E5:
                                87:72:FC:B4:02:21:00:D2:F5:D3:79:3C:68:A2:52:77:
                                E2:5D:80:DE:5B:32:D2:3C:17:BB:03:43:DE:4E:F9:4F:
                                79:C6:72:B1:9D:41:CC
                Signed Certificate Timestamp:
                    Version   : v1 (0x0)
                    Log ID    : 0D:E1:F2:30:2B:D3:0D:C1:40:62:12:09:EA:55:2E:FC:
                                47:74:7C:B1:D7:E9:30:EF:0E:42:1E:B4:7E:4E:AA:34
                    Timestamp : Jun 20 10:13:14.253 2025 GMT
                    Extensions: none
                    Signature : ecdsa-with-SHA256
                                30:44:02:20:42:7F:17:F0:44:9C:D2:FE:54:62:70:38:
                                12:41:54:66:E4:B3:24:D1:67:5C:50:D0:19:CC:24:6A:
                                EB:EC:8B:E8:02:20:05:78:59:A0:8B:30:70:0D:BD:40:
                                13:19:AB:9D:70:E7:D3:E9:15:62:47:C5:7A:FF:86:00:
                                D2:24:59:BB:42:DF
    Signature Algorithm: sha256WithRSAEncryption
    Signature Value:
        c6:3f:10:6b:0a:af:4b:c1:29:ed:28:4a:db:7f:50:d6:1b:ec:
        5a:ce:9a:bd:74:05:1c:6d:99:b8:4a:cd:ae:64:56:b3:db:5e:
        7d:02:89:a9:26:3e:72:02:66:6e:df:8c:ca:cd:b2:a1:cf:a8:
        f9:0a:cc:36:33:e4:77:5f:f5:ae:59:de:2c:24:ef:94:b3:2b:
        22:18:39:9a:36:bb:3b:95:cb:0c:11:73:d9:4d:6a:66:df:36:
        9f:e9:aa:94:57:cf:d7:b3:10:c5:0b:93:a1:8b:50:59:e1:4d:
        4d:1d:06:ca:97:48:14:84:0a:33:0e:c9:ee:17:26:00:44:72:
        f7:25:a8:1b:99:06:7d:1d:ca:00:f9:b8:76:9f:e2:8e:8c:21:
        78:fb:d2:fb:f0:9c:d8:0d:2b:a8:a0:c1:0e:45:dd:45:18:23:
        07:a8:92:cd:ce:60:c0:32:60:13:c0:ae:a4:e1:dd:5f:36:2a:
        ff:02:85:82:25:51:17:f4:f2:a8:7e:92:e0:85:72:44:57:df:
        eb:5d:0a:6e:62:a3:90:82:89:07:bd:c4:3b:79:45:29:38:f7:
        a9:c5:72:fe:05:d2:1a:9a:b1:bd:ff:5e:fa:bc:06:9b:a0:f1:
        25:ba:7f:8f:5d:2b:b4:f7:d0:34:15:ab:f1:cc:1b:df:d0:ed:
        4b:c8:9c:9c

-----BEGIN CERTIFICATE-----
MIIGLTCCBRWgAwIBAgISBdjHyWKrutlMv0/iqzNc8XiyMA0GCSqGSIb3DQEBCwUA
MDMxCzAJBgNVBAYTAlVTMRYwFAYDVQQKEw1MZXQncyBFbmNyeXB0MQwwCgYDVQQD
EwNSMTAwHhcNMjUwNjIwMDkxNDQxWhcNMjUwOTE4MDkxNDQwWjAkMSIwIAYDVQQD
DBkqLmc2ZnlpYXEubW9uZ29kYi1kZXYubmV0MIICIjANBgkqhkiG9w0BAQEFAAOC
Ag8AMIICCgKCAgEAtWmLr0uooO/WE3jE8Zvvoo6TjQvCR8uhl9gxA8Yr2zZQXSaG
1VToSs/BhneDAmS/Q/hn9XCb+LxlRzEadgdktzujYAW4qKzXzhaqTplkgtgYR6ir
TZVPmJbz5M9TSoP7WJhCUgl7z+wDtWQx7HjtXQvaiO9GbnMpzkkd/TTtJPHLqEaR
lOc6Vfsktf4EBFg7mK02AtdG/uIb9XLYwJyWn83k4cLMkIxmXhAGGt1KsIfRm3Bz
WEK7/oiKdzGFe1KN5y5oSZbkU2/6+kqRPSjHeGRe5rYdR8JrmtFS7+k1D6/O+E+k
Mqhc9Q05lZiFMxTYsjzRID+rRGbTGX1OWgCGUJQz1QVHn/YVCSzxWl8PvAcVR2GF
1QrCUUio0W8KJI3+9e9/RrXKaecc+9+bSJCHKjNVBIYzloq1bR4RFUdWYCgqf92k
RBRTp8uF3kXXCiYpNRCYghxykS/nA8YjMKLpYed0bJadUVqEMr5ixdn5pWwB8spX
oMbgnoktqT+DkiP/i7E3sipx0nU3iihxxEFC/fFZoX3NUXFSFR58KFaC1uOOxQ3Q
QeInOmzTLBWSx/jPJincn/cvrzJjEYlsTn4hCJkySKHb5fyV1o3d6RUDQuGUIE+6
7w6s2ZnRmQELdC34ihjbdTJpXPRjCOq4Qk8UqjA8sMei/2doqPG8OvBS7+MCAwEA
AaOCAkgwggJEMA4GA1UdDwEB/wQEAwIFoDAdBgNVHSUEFjAUBggrBgEFBQcDAQYI
KwYBBQUHAwIwDAYDVR0TAQH/BAIwADAdBgNVHQ4EFgQUsjFgDhRfXtomS+rZfPSv
7skiQX4wHwYDVR0jBBgwFoAUu7zDR6XkvKnGw6RyDBCNojXhyOgwMwYIKwYBBQUH
AQEEJzAlMCMGCCsGAQUFBzAChhdodHRwOi8vcjEwLmkubGVuY3Iub3JnLzBEBgNV
HREEPTA7gh4qLmc2ZnlpYXEubWVzaC5tb25nb2RiLWRldi5uZXSCGSouZzZmeWlh
cS5tb25nb2RiLWRldi5uZXQwEwYDVR0gBAwwCjAIBgZngQwBAgEwLgYDVR0fBCcw
JTAjoCGgH4YdaHR0cDovL3IxMC5jLmxlbmNyLm9yZy81MS5jcmwwggEDBgorBgEE
AdZ5AgQCBIH0BIHxAO8AdgDtPEvW6AbCpKIAV9vLJOI4Ad9RL+3EhsVwDyDdtz4/
4AAAAZeM0/uwAAAEAwBHMEUCIGXbKS39cL4BFGZVYU/59BtMh5IuQw/19Mo5UOWH
cvy0AiEA0vXTeTxoolJ34l2A3lsy0jwXuwND3k75T3nGcrGdQcwAdQAN4fIwK9MN
wUBiEgnqVS78R3R8sdfpMO8OQh60fk6qNAAAAZeM1AONAAAEAwBGMEQCIEJ/F/BE
nNL+VGJwOBJBVGbksyTRZ1xQ0BnMJGrr7IvoAiAFeFmgizBwDb1AExmrnXDn0+kV
YkfFev+GANIkWbtC3zANBgkqhkiG9w0BAQsFAAOCAQEAxj8QawqvS8Ep7ShK239Q
1hvsWs6avXQFHG2ZuErNrmRWs9tefQKJqSY+cgJmbt+Mys2yoc+o+QrMNjPkd1/1
rlneLCTvlLMrIhg5mja7O5XLDBFz2U1qZt82n+mqlFfP17MQxQuToYtQWeFNTR0G
ypdIFIQKMw7J7hcmAERy9yWoG5kGfR3KAPm4dp/ijowhePvS+/Cc2A0rqKDBDkXd
RRgjB6iSzc5gwDJgE8CupOHdXzYq/wKFgiVRF/TyqH6S4IVyRFff610KbmKjkIKJ
B73EO3lFKTj3qcVy/gXSGpqxvf9e+rwGm6DxJbp/j10rtPfQNBWr8cwb39DtS8ic
nA==
-----END CERTIFICATE-----
