Certificate:
    Data:
        Version: 3 (0x2)
        Serial Number:
            05:0d:60:7b:94:7d:3a:80:9f:6e:54:12:9a:f6:55:1f:8f:2d
        Signature Algorithm: sha256WithRSAEncryption
        Issuer: C=US, O=Let's Encrypt, CN=R11
        Validity
            Not Before: Apr  5 10:12:08 2025 GMT
            Not After : Jul  4 10:12:07 2025 GMT
        Subject: CN=*.g6fyiaq.mongodb-dev.net
        Subject Public Key Info:
            Public Key Algorithm: rsaEncryption
                Public-Key: (4096 bit)
                Modulus:
                    00:d0:9f:a2:6b:21:65:bd:5d:67:3e:fe:23:41:58:
                    b9:2e:86:48:fd:9c:84:22:df:fa:cd:93:2d:a1:a3:
                    94:08:3c:23:2f:35:5c:9c:ee:14:b3:a1:76:5e:96:
                    fe:de:18:3c:52:56:2f:63:c4:d9:ca:9c:b0:31:c6:
                    6f:05:80:51:04:99:ce:d7:9b:5c:4c:df:a0:2d:b1:
                    cb:a6:03:09:41:26:55:01:c5:95:ed:bf:f4:ae:e8:
                    ff:eb:bc:59:25:33:1d:8b:7e:69:7c:9c:ba:9f:b7:
                    d2:26:f3:f5:cc:17:3e:20:39:f7:51:a0:b2:fb:f5:
                    3f:94:f1:88:5b:8d:dd:b5:ac:e5:e9:1e:c1:b9:f3:
                    58:18:14:61:91:75:fb:de:3e:57:64:26:92:8e:74:
                    37:2a:8f:e3:56:ec:10:01:5d:96:aa:5d:b5:89:a6:
                    5f:3c:bc:e2:3d:87:36:a4:cf:e6:3d:e3:b6:3d:4c:
                    6c:70:e5:54:c3:19:96:dd:08:55:c3:c6:71:64:53:
                    c3:86:9c:9a:0c:ce:b7:da:75:d7:f4:6d:0d:84:97:
                    d5:78:f8:50:97:92:ec:22:5a:9e:47:a4:1a:0a:99:
                    a1:47:b8:12:71:fd:8e:01:cf:d3:62:31:92:59:dc:
                    12:5f:c6:5b:e9:35:fb:40:de:2d:30:d9:c8:a5:ad:
                    f9:45:cd:37:42:23:27:45:eb:62:84:ef:e3:4c:2c:
                    10:53:b1:95:8d:4a:c3:12:d7:20:53:49:f9:46:ca:
                    b3:7c:1a:f3:5e:f8:34:1f:a0:30:3b:d0:d8:30:6b:
                    c4:43:12:b3:34:1e:a2:44:6b:89:aa:0a:a0:ab:b5:
                    5d:5b:dd:a5:6e:a8:e2:e1:46:19:ab:ae:5e:08:36:
                    75:5f:fc:e1:34:a4:b0:d1:d1:9e:7b:07:2f:1d:ac:
                    04:85:d6:b0:67:7f:84:0d:ec:eb:9a:6b:b0:59:be:
                    31:05:4d:a7:8c:79:5c:db:0b:8f:1f:a2:a0:83:36:
                    13:1f:c5:34:c4:1b:c0:28:48:6b:5f:1d:1c:6e:7f:
                    63:25:d4:8d:03:d7:c9:55:d2:2a:59:74:d4:a3:d9:
                    70:4e:03:77:35:67:57:72:1f:c8:43:06:c3:44:5c:
                    a6:f4:e6:d1:68:76:c9:09:40:38:a1:d6:ca:c2:82:
                    0a:d3:b1:9a:c1:02:91:5f:39:dd:aa:65:1c:4e:60:
                    81:4e:3c:a3:0b:9c:a6:31:28:d6:55:35:e7:90:64:
                    cd:4c:3d:aa:50:24:fa:9d:44:73:a6:f6:fd:e0:3d:
                    ac:1f:90:f8:fc:52:7b:f7:6c:fc:60:1b:2f:e6:1c:
                    0f:d2:68:69:1d:99:5b:52:d0:61:73:bb:72:4a:2f:
                    85:7c:13
                Exponent: 65537 (0x10001)
        X509v3 extensions:
            X509v3 Key Usage: critical
                Digital Signature, Key Encipherment
            X509v3 Extended Key Usage: 
                TLS Web Server Authentication, TLS Web Client Authentication
            X509v3 Basic Constraints: critical
                CA:FALSE
            X509v3 Subject Key Identifier: 
                9B:3D:61:FD:0C:4C:49:A1:AC:C8:70:6B:D3:A5:C6:4D:DC:1C:FF:19
            X509v3 Authority Key Identifier: 
                C5:CF:46:A4:EA:F4:C3:C0:7A:6C:95:C4:2D:B0:5E:92:2F:26:E3:B9
            Authority Information Access: 
                OCSP - URI:http://r11.o.lencr.org
                CA Issuers - URI:http://r11.i.lencr.org/
            X509v3 Subject Alternative Name: 
                DNS:*.g6fyiaq.mesh.mongodb-dev.net, DNS:*.g6fyiaq.mongodb-dev.net
            X509v3 Certificate Policies: 
                Policy: 2.23.140.1.2.1
            X509v3 CRL Distribution Points: 
                Full Name:
                  URI:http://r11.c.lencr.org/46.crl

            CT Precertificate SCTs: 
                Signed Certificate Timestamp:
                    Version   : v1 (0x0)
                    Log ID    : 7D:59:1E:12:E1:78:2A:7B:1C:61:67:7C:5E:FD:F8:D0:
                                87:5C:14:A0:4E:95:9E:B9:03:2F:D9:0E:8C:2E:79:B8
                    Timestamp : Apr  5 11:10:38.665 2025 GMT
                    Extensions: none
                    Signature : ecdsa-with-SHA256
                                30:45:02:20:1E:9C:8D:0A:65:EE:36:46:C5:98:79:A8:
                                A2:A4:FE:A7:A4:39:BA:A1:29:EF:59:09:BD:A9:FD:3E:
                                9E:CD:EA:2C:02:21:00:CC:CA:FE:A5:A9:7E:2B:D1:22:
                                FD:08:D0:26:DB:C0:64:71:D2:56:7E:89:6E:40:5B:6F:
                                A0:23:53:4F:7F:74:68
                Signed Certificate Timestamp:
                    Version   : v1 (0x0)
                    Log ID    : 12:F1:4E:34:BD:53:72:4C:84:06:19:C3:8F:3F:7A:13:
                                F8:E7:B5:62:87:88:9C:6D:30:05:84:EB:E5:86:26:3A
                    Timestamp : Apr  5 11:10:38.686 2025 GMT
                    Extensions: none
                    Signature : ecdsa-with-SHA256
                                30:45:02:21:00:8A:0E:5D:A0:74:E4:77:B7:A6:68:29:
                                B4:AC:BC:76:C1:27:E8:BA:C7:D1:E3:49:1A:D8:8F:E3:
                                1B:0F:C9:E7:9E:02:20:25:1E:9C:A7:A3:3F:4E:9C:F3:
                                EC:25:F9:EC:16:5D:9A:D4:16:A5:C9:4D:AE:24:0A:38:
                                AD:B4:D8:E9:33:8F:4F
    Signature Algorithm: sha256WithRSAEncryption
    Signature Value:
        25:21:19:2a:a0:29:bb:da:2b:b5:38:a9:93:6a:e7:e0:0b:4a:
        6e:0e:33:99:ba:a1:3a:75:53:c1:cf:8b:7c:59:8c:3c:cb:5b:
        bf:80:9c:c5:a0:b8:15:f3:fe:ac:35:49:c4:57:8f:f0:de:bd:
        19:ba:d7:03:68:a0:56:07:68:f9:84:19:89:0e:3b:1d:57:46:
        7e:09:23:b9:e2:6e:b6:db:cd:7c:2d:0d:b0:17:88:18:3d:ad:
        b0:c0:60:a0:28:69:07:eb:1a:00:d0:b5:c6:14:85:0c:78:a0:
        ce:2e:28:e9:69:3f:c7:c5:31:36:45:f3:87:10:cd:bc:d3:21:
        68:fd:5e:b9:7e:94:34:b8:d2:b2:24:53:73:fa:21:71:36:60:
        92:68:fb:77:e8:0a:38:68:08:c7:d7:97:1b:5a:c0:2c:bf:5a:
        4f:3c:5c:46:c1:d6:a7:69:b5:9c:32:36:86:53:38:b5:19:3e:
        b3:0b:13:e7:5c:44:99:ae:8a:da:ab:74:dc:f4:12:c3:97:f9:
        a7:6e:72:68:b3:28:df:8e:b9:11:71:49:2b:ad:f8:80:07:71:
        52:4e:94:d5:0e:e5:ee:de:cc:55:62:43:9c:37:bf:e3:19:01:
        a7:bb:f9:9f:e0:5e:44:08:86:c9:ab:1e:6d:2b:17:0d:34:d2:
        f5:3c:4e:94

-----BEGIN CERTIFICATE-----
MIIGUjCCBTqgAwIBAgISBQ1ge5R9OoCfblQSmvZVH48tMA0GCSqGSIb3DQEBCwUA
MDMxCzAJBgNVBAYTAlVTMRYwFAYDVQQKEw1MZXQncyBFbmNyeXB0MQwwCgYDVQQD
EwNSMTEwHhcNMjUwNDA1MTAxMjA4WhcNMjUwNzA0MTAxMjA3WjAkMSIwIAYDVQQD
DBkqLmc2ZnlpYXEubW9uZ29kYi1kZXYubmV0MIICIjANBgkqhkiG9w0BAQEFAAOC
Ag8AMIICCgKCAgEA0J+iayFlvV1nPv4jQVi5LoZI/ZyEIt/6zZMtoaOUCDwjLzVc
nO4Us6F2Xpb+3hg8UlYvY8TZypywMcZvBYBRBJnO15tcTN+gLbHLpgMJQSZVAcWV
7b/0ruj/67xZJTMdi35pfJy6n7fSJvP1zBc+IDn3UaCy+/U/lPGIW43dtazl6R7B
ufNYGBRhkXX73j5XZCaSjnQ3Ko/jVuwQAV2Wql21iaZfPLziPYc2pM/mPeO2PUxs
cOVUwxmW3QhVw8ZxZFPDhpyaDM632nXX9G0NhJfVePhQl5LsIlqeR6QaCpmhR7gS
cf2OAc/TYjGSWdwSX8Zb6TX7QN4tMNnIpa35Rc03QiMnRetihO/jTCwQU7GVjUrD
EtcgU0n5RsqzfBrzXvg0H6AwO9DYMGvEQxKzNB6iRGuJqgqgq7VdW92lbqji4UYZ
q65eCDZ1X/zhNKSw0dGeewcvHawEhdawZ3+EDezrmmuwWb4xBU2njHlc2wuPH6Kg
gzYTH8U0xBvAKEhrXx0cbn9jJdSNA9fJVdIqWXTUo9lwTgN3NWdXch/IQwbDRFym
9ObRaHbJCUA4odbKwoIK07GawQKRXzndqmUcTmCBTjyjC5ymMSjWVTXnkGTNTD2q
UCT6nURzpvb94D2sH5D4/FJ792z8YBsv5hwP0mhpHZlbUtBhc7tySi+FfBMCAwEA
AaOCAm0wggJpMA4GA1UdDwEB/wQEAwIFoDAdBgNVHSUEFjAUBggrBgEFBQcDAQYI
KwYBBQUHAwIwDAYDVR0TAQH/BAIwADAdBgNVHQ4EFgQUmz1h/QxMSaGsyHBr06XG
Tdwc/xkwHwYDVR0jBBgwFoAUxc9GpOr0w8B6bJXELbBeki8m47kwVwYIKwYBBQUH
AQEESzBJMCIGCCsGAQUFBzABhhZodHRwOi8vcjExLm8ubGVuY3Iub3JnMCMGCCsG
AQUFBzAChhdodHRwOi8vcjExLmkubGVuY3Iub3JnLzBEBgNVHREEPTA7gh4qLmc2
ZnlpYXEubWVzaC5tb25nb2RiLWRldi5uZXSCGSouZzZmeWlhcS5tb25nb2RiLWRl
di5uZXQwEwYDVR0gBAwwCjAIBgZngQwBAgEwLgYDVR0fBCcwJTAjoCGgH4YdaHR0
cDovL3IxMS5jLmxlbmNyLm9yZy80Ni5jcmwwggEEBgorBgEEAdZ5AgQCBIH1BIHy
APAAdgB9WR4S4XgqexxhZ3xe/fjQh1wUoE6VnrkDL9kOjC55uAAAAZYFpUJJAAAE
AwBHMEUCIB6cjQpl7jZGxZh5qKKk/qekObqhKe9ZCb2p/T6ezeosAiEAzMr+pal+
K9Ei/QjQJtvAZHHSVn6JbkBbb6AjU09/dGgAdgAS8U40vVNyTIQGGcOPP3oT+Oe1
YoeInG0wBYTr5YYmOgAAAZYFpUJeAAAEAwBHMEUCIQCKDl2gdOR3t6ZoKbSsvHbB
J+i6x9HjSRrYj+MbD8nnngIgJR6cp6M/Tpzz7CX57BZdmtQWpclNriQKOK202Okz
j08wDQYJKoZIhvcNAQELBQADggEBACUhGSqgKbvaK7U4qZNq5+ALSm4OM5m6oTp1
U8HPi3xZjDzLW7+AnMWguBXz/qw1ScRXj/DevRm61wNooFYHaPmEGYkOOx1XRn4J
I7nibrbbzXwtDbAXiBg9rbDAYKAoaQfrGgDQtcYUhQx4oM4uKOlpP8fFMTZF84cQ
zbzTIWj9Xrl+lDS40rIkU3P6IXE2YJJo+3foCjhoCMfXlxtawCy/Wk88XEbB1qdp
tZwyNoZTOLUZPrMLE+dcRJmuitqrdNz0EsOX+aducmizKN+OuRFxSSut+IAHcVJO
lNUO5e7ezFViQ5w3v+MZAae7+Z/gXkQIhsmrHm0rFw000vU8TpQ=
-----END CERTIFICATE-----