Certificate:
    Data:
        Version: 3 (0x2)
        Serial Number:
            04:60:93:4c:38:cf:3b:3a:7e:1a:1f:bf:c4:72:01:7f:fc:b6
        Signature Algorithm: sha256WithRSAEncryption
        Issuer: C=US, O=Let's Encrypt, CN=R10
        Validity
            Not Before: Jan 19 11:09:50 2025 GMT
            Not After : Apr 19 11:09:49 2025 GMT
        Subject: CN=*.g6fyiaq.mongodb-dev.net
        Subject Public Key Info:
            Public Key Algorithm: rsaEncryption
                Public-Key: (4096 bit)
                Modulus:
                    00:d6:d7:c5:1f:76:f4:c7:a6:df:23:59:d6:0a:e4:
                    c5:f7:a4:80:6b:4e:e9:66:1a:e6:43:21:27:04:41:
                    11:9f:32:7e:7d:93:c8:77:4a:d3:84:72:f7:4d:40:
                    38:47:00:a7:dc:4c:ca:f3:ef:c5:cf:d6:a0:06:f6:
                    8b:be:06:64:11:b0:f2:ad:b6:2d:78:84:d4:99:65:
                    d8:eb:4c:b2:d3:aa:d0:29:62:c5:77:2d:ce:8f:71:
                    4e:26:27:b3:83:27:2c:06:a9:d2:d4:83:de:b0:b3:
                    37:b1:9a:a9:24:af:93:91:67:28:4e:e3:cf:c1:aa:
                    75:99:83:0d:4c:e2:cc:02:0f:59:98:a4:b7:7b:79:
                    04:ea:f7:ea:5c:2f:2d:48:1b:4c:68:4c:53:5f:69:
                    db:16:f7:6b:3f:d8:a4:8c:63:76:c6:f5:b8:90:3f:
                    4d:95:f3:68:b2:c9:df:cc:37:ac:e1:17:e6:bb:0e:
                    02:64:b5:75:f0:c1:77:5d:dc:0f:9c:09:d3:b1:f7:
                    a6:95:54:13:82:83:1d:be:17:e2:d3:fb:f8:53:2b:
                    15:ef:b8:7d:f5:6c:0f:43:e2:22:66:7e:bc:c3:bd:
                    d4:70:ba:71:1d:0e:67:c9:4e:2a:74:7d:30:88:87:
                    19:c9:51:54:12:23:14:c8:4f:18:41:46:4f:47:85:
                    31:6d:a1:30:f1:99:99:de:1d:d6:e2:e3:b3:ae:57:
                    02:01:a5:35:1f:22:21:32:2c:70:0d:c5:0c:63:fe:
                    9d:72:44:08:d6:c7:fe:91:bf:c9:9a:4e:d9:1e:35:
                    5e:44:22:00:b2:8b:17:16:26:f7:60:2d:9e:ce:bd:
                    27:28:f7:29:3d:9f:0f:61:bc:7e:76:3f:c5:1e:24:
                    dc:1b:79:aa:54:0c:51:9f:af:7c:64:e7:dd:de:ff:
                    23:8c:84:1c:32:46:82:53:89:14:a0:47:a3:36:3b:
                    7b:a6:0e:62:a5:5b:2d:07:94:6a:42:6f:5e:eb:48:
                    a7:ce:b2:d9:25:91:7d:96:6c:c2:45:61:fb:e2:11:
                    ac:6f:b3:62:34:16:d1:03:13:85:0e:1f:5d:f9:02:
                    39:3c:04:e9:35:ec:0e:12:77:99:79:eb:77:ed:7d:
                    90:26:b7:14:51:bc:a4:fa:e9:24:da:14:cf:93:39:
                    35:8f:71:62:5a:d9:e0:e5:16:c7:a7:fd:3b:ce:82:
                    59:0f:f5:7b:d2:bc:40:c7:39:be:47:80:5e:19:31:
                    0c:f1:e5:25:52:77:8d:67:8f:1d:01:cd:26:03:65:
                    9a:fe:4e:2e:5a:a6:05:f2:25:55:83:3b:6a:44:ce:
                    2c:1b:40:74:3a:e7:23:47:a8:8d:29:2f:d6:1f:82:
                    40:59:01
                Exponent: 65537 (0x10001)
        X509v3 extensions:
            X509v3 Key Usage: critical
                Digital Signature, Key Encipherment
            X509v3 Extended Key Usage: 
                TLS Web Server Authentication, TLS Web Client Authentication
            X509v3 Basic Constraints: critical
                CA:FALSE
            X509v3 Subject Key Identifier: 
                22:2D:D2:FA:B7:C9:B9:67:B1:FD:1A:AE:A1:37:32:A6:E4:7B:0D:78
            X509v3 Authority Key Identifier: 
                BB:BC:C3:47:A5:E4:BC:A9:C6:C3:A4:72:0C:10:8D:A2:35:E1:C8:E8
            Authority Information Access: 
                OCSP - URI:http://r10.o.lencr.org
                CA Issuers - URI:http://r10.i.lencr.org/
            X509v3 Subject Alternative Name: 
                DNS:*.g6fyiaq.mesh.mongodb-dev.net, DNS:*.g6fyiaq.mongodb-dev.net
            X509v3 Certificate Policies: 
                Policy: 2.23.140.1.2.1
            CT Precertificate SCTs: 
                Signed Certificate Timestamp:
                    Version   : v1 (0x0)
                    Log ID    : A2:E3:0A:E4:45:EF:BD:AD:9B:7E:38:ED:47:67:77:53:
                                D7:82:5B:84:94:D7:2B:5E:1B:2C:C4:B9:50:A4:47:E7
                    Timestamp : Jan 19 12:08:20.846 2025 GMT
                    Extensions: none
                    Signature : ecdsa-with-SHA256
                                30:44:02:20:62:EF:5D:53:0F:5D:A6:89:28:82:A0:F4:
                                4D:2B:B6:68:C4:0A:0E:D8:18:C1:3E:C3:44:20:18:1F:
                                AB:E0:62:41:02:20:41:EB:DC:F8:37:5C:96:61:93:DC:
                                C4:06:C6:05:29:72:8A:65:DC:16:02:99:6D:4B:F4:69:
                                69:D5:29:30:5A:79
                Signed Certificate Timestamp:
                    Version   : v1 (0x0)
                    Log ID    : 7D:59:1E:12:E1:78:2A:7B:1C:61:67:7C:5E:FD:F8:D0:
                                87:5C:14:A0:4E:95:9E:B9:03:2F:D9:0E:8C:2E:79:B8
                    Timestamp : Jan 19 12:08:20.951 2025 GMT
                    Extensions: none
                    Signature : ecdsa-with-SHA256
                                30:44:02:20:6F:06:37:B0:88:E2:58:D3:C7:E8:CD:F0:
                                57:AF:BF:87:C8:44:EC:30:D2:3A:19:FC:3E:53:BF:8B:
                                D1:CE:0D:9D:02:20:1F:DF:1F:97:71:1B:64:B3:D5:C2:
                                D9:6D:27:31:B4:D7:41:1E:7E:F2:39:CC:A3:1C:8E:65:
                                9B:A5:11:D8:69:FB
    Signature Algorithm: sha256WithRSAEncryption
    Signature Value:
        57:fb:59:39:c2:04:47:96:43:ff:81:b5:8f:a8:ed:88:b2:2b:
        c3:47:0b:90:35:8d:bd:03:9c:26:29:f0:6b:9c:16:dd:e5:4a:
        ed:80:75:60:3b:f5:71:32:79:61:a0:3d:71:a4:4c:f4:2a:f6:
        ad:de:b2:6b:f2:51:fc:d0:ed:2f:ce:51:59:51:29:d1:9d:0f:
        6b:da:3c:26:ab:23:9b:c3:cb:99:ed:2f:db:15:f5:9b:cd:57:
        0b:79:36:bd:a4:c5:77:57:cf:36:fe:d0:c8:31:19:b0:1c:a0:
        4b:fe:75:bd:92:ad:5b:8b:2b:95:df:2f:f3:c9:46:72:03:a2:
        2c:a8:ac:59:cf:de:53:fa:3f:54:67:c9:45:86:34:ae:43:5e:
        75:8c:57:45:19:78:1f:88:f5:da:ef:cc:b4:40:00:05:d8:a2:
        3a:28:51:ae:1d:c0:bf:cd:61:e4:30:15:e5:d4:fd:bb:d0:bb:
        fb:4d:34:60:49:b7:a0:a9:bf:af:e7:44:d9:85:e9:9e:48:d3:
        e4:b2:28:e1:80:7d:c3:59:7f:c1:b2:61:16:49:24:8d:81:bc:
        06:dc:58:12:b6:e9:19:9c:8e:d7:2b:f5:79:ac:84:dc:37:8a:
        59:28:4d:90:c1:96:b7:e9:03:24:aa:42:b9:ec:ba:4d:81:7f:
        69:d1:f9:ed

-----BEGIN CERTIFICATE-----
MIIGIDCCBQigAwIBAgISBGCTTDjPOzp+Gh+/xHIBf/y2MA0GCSqGSIb3DQEBCwUA
MDMxCzAJBgNVBAYTAlVTMRYwFAYDVQQKEw1MZXQncyBFbmNyeXB0MQwwCgYDVQQD
EwNSMTAwHhcNMjUwMTE5MTEwOTUwWhcNMjUwNDE5MTEwOTQ5WjAkMSIwIAYDVQQD
DBkqLmc2ZnlpYXEubW9uZ29kYi1kZXYubmV0MIICIjANBgkqhkiG9w0BAQEFAAOC
Ag8AMIICCgKCAgEA1tfFH3b0x6bfI1nWCuTF96SAa07pZhrmQyEnBEERnzJ+fZPI
d0rThHL3TUA4RwCn3EzK8+/Fz9agBvaLvgZkEbDyrbYteITUmWXY60yy06rQKWLF
dy3Oj3FOJiezgycsBqnS1IPesLM3sZqpJK+TkWcoTuPPwap1mYMNTOLMAg9ZmKS3
e3kE6vfqXC8tSBtMaExTX2nbFvdrP9ikjGN2xvW4kD9NlfNossnfzDes4Rfmuw4C
ZLV18MF3XdwPnAnTsfemlVQTgoMdvhfi0/v4UysV77h99WwPQ+IiZn68w73UcLpx
HQ5nyU4qdH0wiIcZyVFUEiMUyE8YQUZPR4UxbaEw8ZmZ3h3W4uOzrlcCAaU1HyIh
MixwDcUMY/6dckQI1sf+kb/Jmk7ZHjVeRCIAsosXFib3YC2ezr0nKPcpPZ8PYbx+
dj/FHiTcG3mqVAxRn698ZOfd3v8jjIQcMkaCU4kUoEejNjt7pg5ipVstB5RqQm9e
60inzrLZJZF9lmzCRWH74hGsb7NiNBbRAxOFDh9d+QI5PATpNewOEneZeet37X2Q
JrcUUbyk+ukk2hTPkzk1j3FiWtng5RbHp/07zoJZD/V70rxAxzm+R4BeGTEM8eUl
UneNZ48dAc0mA2Wa/k4uWqYF8iVVgztqRM4sG0B0OucjR6iNKS/WH4JAWQECAwEA
AaOCAjswggI3MA4GA1UdDwEB/wQEAwIFoDAdBgNVHSUEFjAUBggrBgEFBQcDAQYI
KwYBBQUHAwIwDAYDVR0TAQH/BAIwADAdBgNVHQ4EFgQUIi3S+rfJuWex/RquoTcy
puR7DXgwHwYDVR0jBBgwFoAUu7zDR6XkvKnGw6RyDBCNojXhyOgwVwYIKwYBBQUH
AQEESzBJMCIGCCsGAQUFBzABhhZodHRwOi8vcjEwLm8ubGVuY3Iub3JnMCMGCCsG
AQUFBzAChhdodHRwOi8vcjEwLmkubGVuY3Iub3JnLzBEBgNVHREEPTA7gh4qLmc2
ZnlpYXEubWVzaC5tb25nb2RiLWRldi5uZXSCGSouZzZmeWlhcS5tb25nb2RiLWRl
di5uZXQwEwYDVR0gBAwwCjAIBgZngQwBAgEwggECBgorBgEEAdZ5AgQCBIHzBIHw
AO4AdQCi4wrkRe+9rZt+OO1HZ3dT14JbhJTXK14bLMS5UKRH5wAAAZR+dsZuAAAE
AwBGMEQCIGLvXVMPXaaJKIKg9E0rtmjECg7YGME+w0QgGB+r4GJBAiBB69z4N1yW
YZPcxAbGBSlyimXcFgKZbUv0aWnVKTBaeQB1AH1ZHhLheCp7HGFnfF79+NCHXBSg
TpWeuQMv2Q6MLnm4AAABlH52xtcAAAQDAEYwRAIgbwY3sIjiWNPH6M3wV6+/h8hE
7DDSOhn8PlO/i9HODZ0CIB/fH5dxG2Sz1cLZbScxtNdBHn7yOcyjHI5lm6UR2Gn7
MA0GCSqGSIb3DQEBCwUAA4IBAQBX+1k5wgRHlkP/gbWPqO2IsivDRwuQNY29A5wm
KfBrnBbd5UrtgHVgO/VxMnlhoD1xpEz0Kvat3rJr8lH80O0vzlFZUSnRnQ9r2jwm
qyObw8uZ7S/bFfWbzVcLeTa9pMV3V882/tDIMRmwHKBL/nW9kq1biyuV3y/zyUZy
A6IsqKxZz95T+j9UZ8lFhjSuQ151jFdFGXgfiPXa78y0QAAF2KI6KFGuHcC/zWHk
MBXl1P270Lv7TTRgSbegqb+v50TZhemeSNPksijhgH3DWX/BsmEWSSSNgbwG3FgS
tukZnI7XK/V5rITcN4pZKE2QwZa36QMkqkK57LpNgX9p0fnt
-----END CERTIFICATE-----