Certificate:
    Data:
        Version: 3 (0x2)
        Serial Number:
            04:ae:c2:45:fc:ba:ae:16:d6:38:7e:de:04:c4:2b:41:fd:a0
        Signature Algorithm: sha256WithRSAEncryption
        Issuer: C=US, O=Let's Encrypt, CN=R3
        Validity
            Not Before: Jun  5 14:02:45 2024 GMT
            Not After : Sep  3 14:02:44 2024 GMT
        Subject: CN=*.g6fyiaq.mongodb-dev.net
        Subject Public Key Info:
            Public Key Algorithm: rsaEncryption
                Public-Key: (4096 bit)
                Modulus:
                    00:c0:d4:93:f2:7c:b5:64:56:a2:ed:07:ab:96:00:
                    61:8d:74:03:ee:10:dc:7f:92:26:ea:b1:c9:2f:7a:
                    33:d2:05:b2:25:ff:15:c0:fc:37:5c:8c:a9:36:82:
                    66:eb:07:70:f9:ec:b3:ca:88:9d:07:51:ef:f2:18:
                    e3:88:3b:f7:f5:b2:29:e2:7f:7b:00:dc:9f:b8:95:
                    cf:f4:58:37:0d:cd:b0:ec:9b:d0:c3:ec:71:d8:4d:
                    97:5a:a2:c6:66:2e:c1:dc:4f:38:f3:ba:43:3d:3e:
                    46:12:a8:08:7a:e3:bc:fa:52:3f:b4:4f:3e:25:9f:
                    4a:c9:fd:af:42:cc:62:59:ba:e1:92:1c:6c:57:2d:
                    86:fb:62:08:08:5b:f9:5e:3c:3b:e8:9a:b2:1c:a0:
                    82:58:0c:e9:40:c2:21:c2:71:93:32:68:44:f9:61:
                    13:bc:d6:c8:71:1e:9c:37:f4:b9:cd:13:30:cd:4b:
                    42:c0:c5:95:91:86:b5:e9:7f:f6:37:de:20:8e:cc:
                    05:3d:14:aa:29:c2:bf:4f:34:71:89:07:54:5b:b4:
                    cd:13:bd:53:74:e7:6f:33:c5:73:36:24:5b:37:88:
                    d1:9e:fc:98:e1:7a:a2:25:65:c5:b1:21:ad:2c:99:
                    0b:03:2e:92:06:ef:c1:31:b6:3b:00:32:00:f5:c4:
                    70:0d:1d:43:1c:a7:31:03:40:a6:95:6c:29:b3:93:
                    54:3b:9f:bd:5f:44:be:ba:04:a9:5c:f1:2d:0d:04:
                    18:51:27:75:47:d7:4b:06:e7:df:bc:2c:4e:c7:4b:
                    18:60:de:51:ce:41:a9:6c:6a:19:d1:a5:0b:03:e5:
                    ec:89:10:6b:b4:94:ba:79:b6:06:11:2e:b2:5f:e6:
                    19:f0:f9:ad:3e:4f:a4:cc:3d:7b:69:46:ed:71:1c:
                    f6:50:6c:53:08:9e:a3:05:59:de:fb:36:a1:92:ad:
                    7d:78:c6:37:13:d1:1a:9a:56:cc:fb:bd:21:34:ec:
                    8d:a5:73:59:6f:4e:aa:e2:2e:16:d6:d6:89:92:a3:
                    8f:d7:b0:46:cf:07:70:75:dc:dc:b3:70:cf:2a:12:
                    84:4e:41:57:10:68:7b:5f:f9:8f:64:d2:d4:e9:c0:
                    eb:b4:68:37:87:40:32:9e:f6:7f:be:31:fb:d5:36:
                    a4:15:ba:52:24:c1:5d:ae:d0:41:e3:ff:88:09:7d:
                    e7:98:23:bb:09:9b:7b:6d:e4:c0:ca:7a:1b:6e:32:
                    63:69:42:7b:26:9d:c9:f0:c3:b9:58:88:c3:74:9d:
                    d3:54:3b:20:09:76:5c:54:4e:60:f7:35:53:e4:f9:
                    aa:af:0e:bd:24:d1:0e:c5:8a:7e:26:f0:e7:a0:26:
                    d0:9d:01
                Exponent: 65537 (0x10001)
        X509v3 extensions:
            X509v3 Key Usage: critical
                Digital Signature, Key Encipherment
            X509v3 Extended Key Usage: 
                TLS Web Server Authentication, TLS Web Client Authentication
            X509v3 Basic Constraints: critical
                CA:FALSE
            X509v3 Subject Key Identifier: 
                03:4A:67:8B:0B:1C:86:4C:9D:D9:E6:E2:43:B1:BA:93:53:50:DE:28
            X509v3 Authority Key Identifier: 
                14:2E:B3:17:B7:58:56:CB:AE:50:09:40:E6:1F:AF:9D:8B:14:C2:C6
            Authority Information Access: 
                OCSP - URI:http://r3.o.lencr.org
                CA Issuers - URI:http://r3.i.lencr.org/
            X509v3 Subject Alternative Name: 
                DNS:*.g6fyiaq.mesh.mongodb-dev.net, DNS:*.g6fyiaq.mongodb-dev.net
            X509v3 Certificate Policies: 
                Policy: 2.23.140.1.2.1
            CT Precertificate SCTs: 
                Signed Certificate Timestamp:
                    Version   : v1 (0x0)
                    Log ID    : 3F:17:4B:4F:D7:22:47:58:94:1D:65:1C:84:BE:0D:12:
                                ED:90:37:7F:1F:85:6A:EB:C1:BF:28:85:EC:F8:64:6E
                    Timestamp : Jun  5 15:02:46.375 2024 GMT
                    Extensions: none
                    Signature : ecdsa-with-SHA256
                                30:45:02:21:00:A2:21:6F:59:A8:6F:DF:1F:D8:BF:D5:
                                0C:C8:90:9C:15:F6:02:20:97:22:70:BD:DF:C6:F8:41:
                                02:A3:86:FB:0F:02:20:5F:4C:E5:7D:38:D7:AF:7C:40:
                                41:B1:99:8A:04:83:2C:95:7F:71:34:42:2F:B9:94:DC:
                                EE:85:D9:2E:6A:FE:0E
                Signed Certificate Timestamp:
                    Version   : v1 (0x0)
                    Log ID    : 76:FF:88:3F:0A:B6:FB:95:51:C2:61:CC:F5:87:BA:34:
                                B4:A4:CD:BB:29:DC:68:42:0A:9F:E6:67:4C:5A:3A:74
                    Timestamp : Jun  5 15:02:46.419 2024 GMT
                    Extensions: none
                    Signature : ecdsa-with-SHA256
                                30:46:02:21:00:FA:63:32:6E:58:54:6F:36:EE:9C:BA:
                                FB:AF:E1:5E:B5:A9:24:8A:81:84:7A:E5:F3:A9:38:42:
                                57:CC:E3:09:C9:02:21:00:E2:BD:7E:3D:45:28:05:91:
                                F6:46:1C:EA:5C:31:DA:4A:88:D2:F8:A2:98:9E:E3:A1:
                                36:1D:41:BF:DA:0A:45:D9
    Signature Algorithm: sha256WithRSAEncryption
    Signature Value:
        61:76:67:a7:27:1f:ac:52:59:f6:73:dd:98:6b:52:25:b2:a3:
        1b:f1:23:8f:07:75:7f:e9:1a:fa:c7:99:61:3c:c4:d6:d4:24:
        a6:2e:e9:67:c6:18:ca:76:57:63:bf:ce:ad:74:92:e1:e5:84:
        1d:94:80:f2:a9:90:a5:8e:83:74:80:cf:d1:2e:be:f7:13:6e:
        84:22:44:e1:a9:bd:60:85:81:ad:ee:17:68:d1:e7:83:dd:aa:
        8e:35:5e:0b:e5:9a:52:23:4d:c6:85:cc:fc:45:09:d3:f7:63:
        1d:72:69:09:99:36:53:97:43:54:53:2e:47:8d:ec:29:f1:d2:
        54:e4:35:f9:84:a1:ef:f0:4b:23:cf:1c:b3:06:c5:6a:bc:d9:
        7e:b3:8c:3a:76:74:28:d8:2b:75:b2:fd:bb:c3:62:02:46:ed:
        ca:47:b2:c9:7a:f3:99:e3:c8:5c:6a:c0:02:a4:25:b9:2d:82:
        87:6c:7a:1f:5d:41:37:53:8f:8a:71:91:13:ed:d7:3f:ac:29:
        58:83:08:1f:1d:62:d4:e9:d9:c8:63:05:0d:24:44:45:44:58:
        be:4a:09:ff:e5:56:e8:67:ad:2d:ee:42:f9:a3:fa:fa:3f:72:
        ab:eb:eb:4b:23:94:f3:ac:91:f5:34:6a:8a:3d:2f:89:52:54:
        a4:7e:5f:db

-----BEGIN CERTIFICATE-----
MIIGIDCCBQigAwIBAgISBK7CRfy6rhbWOH7eBMQrQf2gMA0GCSqGSIb3DQEBCwUA
MDIxCzAJBgNVBAYTAlVTMRYwFAYDVQQKEw1MZXQncyBFbmNyeXB0MQswCQYDVQQD
EwJSMzAeFw0yNDA2MDUxNDAyNDVaFw0yNDA5MDMxNDAyNDRaMCQxIjAgBgNVBAMM
GSouZzZmeWlhcS5tb25nb2RiLWRldi5uZXQwggIiMA0GCSqGSIb3DQEBAQUAA4IC
DwAwggIKAoICAQDA1JPyfLVkVqLtB6uWAGGNdAPuENx/kibqsckvejPSBbIl/xXA
/DdcjKk2gmbrB3D57LPKiJ0HUe/yGOOIO/f1sinif3sA3J+4lc/0WDcNzbDsm9DD
7HHYTZdaosZmLsHcTzjzukM9PkYSqAh647z6Uj+0Tz4ln0rJ/a9CzGJZuuGSHGxX
LYb7YggIW/lePDvomrIcoIJYDOlAwiHCcZMyaET5YRO81shxHpw39LnNEzDNS0LA
xZWRhrXpf/Y33iCOzAU9FKopwr9PNHGJB1RbtM0TvVN0528zxXM2JFs3iNGe/Jjh
eqIlZcWxIa0smQsDLpIG78ExtjsAMgD1xHANHUMcpzEDQKaVbCmzk1Q7n71fRL66
BKlc8S0NBBhRJ3VH10sG59+8LE7HSxhg3lHOQalsahnRpQsD5eyJEGu0lLp5tgYR
LrJf5hnw+a0+T6TMPXtpRu1xHPZQbFMInqMFWd77NqGSrX14xjcT0RqaVsz7vSE0
7I2lc1lvTqriLhbW1omSo4/XsEbPB3B13NyzcM8qEoROQVcQaHtf+Y9k0tTpwOu0
aDeHQDKe9n++MfvVNqQVulIkwV2u0EHj/4gJfeeYI7sJm3tt5MDKehtuMmNpQnsm
ncnww7lYiMN0ndNUOyAJdlxUTmD3NVPk+aqvDr0k0Q7Fin4m8OegJtCdAQIDAQAB
o4ICPDCCAjgwDgYDVR0PAQH/BAQDAgWgMB0GA1UdJQQWMBQGCCsGAQUFBwMBBggr
BgEFBQcDAjAMBgNVHRMBAf8EAjAAMB0GA1UdDgQWBBQDSmeLCxyGTJ3Z5uJDsbqT
U1DeKDAfBgNVHSMEGDAWgBQULrMXt1hWy65QCUDmH6+dixTCxjBVBggrBgEFBQcB
AQRJMEcwIQYIKwYBBQUHMAGGFWh0dHA6Ly9yMy5vLmxlbmNyLm9yZzAiBggrBgEF
BQcwAoYWaHR0cDovL3IzLmkubGVuY3Iub3JnLzBEBgNVHREEPTA7gh4qLmc2Znlp
YXEubWVzaC5tb25nb2RiLWRldi5uZXSCGSouZzZmeWlhcS5tb25nb2RiLWRldi5u
ZXQwEwYDVR0gBAwwCjAIBgZngQwBAgEwggEFBgorBgEEAdZ5AgQCBIH2BIHzAPEA
dgA/F0tP1yJHWJQdZRyEvg0S7ZA3fx+FauvBvyiF7PhkbgAAAY/o7IdnAAAEAwBH
MEUCIQCiIW9ZqG/fH9i/1QzIkJwV9gIglyJwvd/G+EECo4b7DwIgX0zlfTjXr3xA
QbGZigSDLJV/cTRCL7mU3O6F2S5q/g4AdwB2/4g/Crb7lVHCYcz1h7o0tKTNuync
aEIKn+ZnTFo6dAAAAY/o7IeTAAAEAwBIMEYCIQD6YzJuWFRvNu6cuvuv4V61qSSK
gYR65fOpOEJXzOMJyQIhAOK9fj1FKAWR9kYc6lwx2kqI0viimJ7joTYdQb/aCkXZ
MA0GCSqGSIb3DQEBCwUAA4IBAQBhdmenJx+sUln2c92Ya1IlsqMb8SOPB3V/6Rr6
x5lhPMTW1CSmLulnxhjKdldjv86tdJLh5YQdlIDyqZCljoN0gM/RLr73E26EIkTh
qb1ghYGt7hdo0eeD3aqONV4L5ZpSI03Ghcz8RQnT92MdcmkJmTZTl0NUUy5Hjewp
8dJU5DX5hKHv8EsjzxyzBsVqvNl+s4w6dnQo2Ct1sv27w2ICRu3KR7LJevOZ48hc
asACpCW5LYKHbHofXUE3U4+KcZET7dc/rClYgwgfHWLU6dnIYwUNJERFRFi+Sgn/
5VboZ60t7kL5o/r6P3Kr6+tLI5TzrJH1NGqKPS+JUlSkfl/b
-----END CERTIFICATE-----