Certificate:
    Data:
        Version: 3 (0x2)
        Serial Number:
            08:dc:93:55:36:6d:c5:92:20:d0:a3:4c:a1:19:ab:2d
        Signature Algorithm: sha256WithRSAEncryption
        Issuer: C = US, O = DigiCert Inc, CN = DigiCert TLS RSA SHA256 2020 CA1
        Validity
            Not Before: Apr 27 00:00:00 2021 GMT
            Not After : May 25 23:59:59 2022 GMT
        Subject: C = US, ST = New York, L = New York, O = "MongoDB, Inc.", CN = *.mongodb-dev.net
        Subject Public Key Info:
            Public Key Algorithm: rsaEncryption
                RSA Public-Key: (2048 bit)
                Modulus:
                    00:bb:c1:de:f6:08:39:fb:f1:9a:f7:d4:68:6a:d7:
                    81:57:0c:09:b9:8f:39:e5:c8:b1:53:52:d8:64:0c:
                    e1:92:9c:ca:3f:92:46:86:5c:e2:8f:20:cf:f9:99:
                    d0:95:46:51:7e:55:f7:3d:62:1b:a4:e7:79:31:0c:
                    39:9d:23:bc:00:6f:2f:3d:5f:d4:88:1b:d0:9c:42:
                    26:45:1b:11:b2:d7:45:f5:aa:2f:07:43:da:bc:ab:
                    43:cb:0b:12:59:41:24:c3:bb:86:7f:2d:1a:c9:26:
                    d7:6b:25:57:48:9c:88:1a:20:fb:65:01:71:27:0c:
                    24:a7:23:40:dc:b6:69:4d:55:ef:14:ba:bd:05:b6:
                    cf:5e:b0:c2:f6:56:bc:88:e9:81:04:94:80:9b:cf:
                    ee:f3:15:05:79:61:41:21:4a:a1:23:29:66:90:e9:
                    d7:03:1e:4f:30:bd:81:46:e4:9b:ab:1f:f8:02:5c:
                    58:98:48:c5:50:16:16:80:0d:25:be:53:27:aa:8b:
                    ca:6c:d5:d9:89:50:2b:38:a6:55:fe:c3:0a:6a:db:
                    9c:1e:23:a2:84:93:4f:d1:a1:3d:00:48:ab:c1:2a:
                    3c:0a:59:a8:5b:d4:88:32:54:a9:de:88:de:1a:82:
                    ef:61:fa:90:fa:42:3d:1d:a8:98:d6:3b:a5:d4:eb:
                    c6:cf
                Exponent: 65537 (0x10001)
        X509v3 extensions:
            X509v3 Authority Key Identifier: 
                keyid:B7:6B:A2:EA:A8:AA:84:8C:79:EA:B4:DA:0F:98:B2:C5:95:76:B9:F4

            X509v3 Subject Key Identifier: 
                3D:23:31:1E:EA:1C:8D:8A:09:AA:2D:2A:84:BF:06:31:DE:87:04:01
            X509v3 Subject Alternative Name: 
                DNS:*.mongodb-dev.net, DNS:mongodb-dev.net
            X509v3 Key Usage: critical
                Digital Signature, Key Encipherment
            X509v3 Extended Key Usage: 
                TLS Web Server Authentication, TLS Web Client Authentication
            X509v3 CRL Distribution Points: 

                Full Name:
                  URI:http://crl3.digicert.com/DigiCertTLSRSASHA2562020CA1.crl

                Full Name:
                  URI:http://crl4.digicert.com/DigiCertTLSRSASHA2562020CA1.crl

            X509v3 Certificate Policies: 
                Policy: 2.23.140.1.2.2
                  CPS: http://www.digicert.com/CPS

            Authority Information Access: 
                OCSP - URI:http://ocsp.digicert.com
                CA Issuers - URI:http://cacerts.digicert.com/DigiCertTLSRSASHA2562020CA1.crt

            X509v3 Basic Constraints: critical
                CA:FALSE
            CT Precertificate SCTs: 
                Signed Certificate Timestamp:
                    Version   : v1 (0x0)
                    Log ID    : 29:79:BE:F0:9E:39:39:21:F0:56:73:9F:63:A5:77:E5:
                                BE:57:7D:9C:60:0A:F8:F9:4D:5D:26:5C:25:5D:C7:84
                    Timestamp : Apr 27 23:28:05.994 2021 GMT
                    Extensions: none
                    Signature : ecdsa-with-SHA256
                                30:45:02:20:42:20:09:2C:F8:4F:9C:4D:70:0C:1D:A6:
                                39:A1:EC:20:4B:54:4B:50:5E:B5:B9:71:1F:6B:60:BC:
                                65:5B:E7:0F:02:21:00:BA:DE:65:82:26:65:7C:D7:01:
                                7C:36:51:71:CF:F7:2C:09:7B:C7:9A:1F:E4:6D:8E:11:
                                7E:DB:60:52:BC:82:8B
                Signed Certificate Timestamp:
                    Version   : v1 (0x0)
                    Log ID    : 22:45:45:07:59:55:24:56:96:3F:A1:2F:F1:F7:6D:86:
                                E0:23:26:63:AD:C0:4B:7F:5D:C6:83:5C:6E:E2:0F:02
                    Timestamp : Apr 27 23:28:05.942 2021 GMT
                    Extensions: none
                    Signature : ecdsa-with-SHA256
                                30:44:02:20:0C:6B:5C:7F:31:B5:24:10:73:23:AF:27:
                                20:11:58:9E:40:A6:6A:BB:D8:48:0F:D1:4A:F1:F8:A9:
                                B0:30:1E:34:02:20:13:04:B5:82:28:59:D7:0B:86:7F:
                                C6:22:6E:9C:67:FF:F1:A3:9F:BF:54:AB:0D:B8:1A:8E:
                                16:D2:F1:8E:37:FF
                Signed Certificate Timestamp:
                    Version   : v1 (0x0)
                    Log ID    : 51:A3:B0:F5:FD:01:79:9C:56:6D:B8:37:78:8F:0C:A4:
                                7A:CC:1B:27:CB:F7:9E:88:42:9A:0D:FE:D4:8B:05:E5
                    Timestamp : Apr 27 23:28:06.392 2021 GMT
                    Extensions: none
                    Signature : ecdsa-with-SHA256
                                30:46:02:21:00:D0:FE:FE:CA:E2:72:85:3A:A6:13:D0:
                                ED:55:8B:67:AF:86:F4:D7:BE:66:67:BB:99:BF:7C:10:
                                2D:28:0E:49:C3:02:21:00:BF:FF:BA:B8:4D:D1:B7:6A:
                                6B:E9:B3:E5:A6:93:CA:14:37:70:C1:4F:89:89:66:58:
                                3F:AA:22:B0:1E:F9:14:DF
    Signature Algorithm: sha256WithRSAEncryption
         78:e3:4f:d2:0f:56:13:0d:a3:5d:1a:68:d7:64:f5:60:d2:37:
         7e:94:d7:4d:d3:5f:11:27:e8:0b:2c:74:6f:23:08:24:94:ba:
         fc:b8:8a:33:3f:99:18:83:cd:4f:14:3a:82:f9:ba:f3:ff:2c:
         b1:f5:c9:be:af:fd:16:79:bd:cf:39:ba:5c:47:88:b1:b1:23:
         6b:6d:1c:67:5d:98:52:58:1d:72:ee:7e:c5:4b:e4:03:ca:ba:
         47:bf:89:c5:48:c2:b1:0b:9c:3e:ed:3e:04:19:62:66:4c:c6:
         44:6f:db:33:20:14:b1:df:c1:8f:3a:21:c1:59:0e:f8:70:3c:
         fe:e0:ad:77:7b:5d:8c:de:a3:cd:d0:5c:84:36:10:00:42:28:
         ee:7c:32:28:4d:41:94:3c:e4:36:7e:e5:d2:b3:d9:6f:f3:f5:
         63:24:3f:9f:c6:64:cc:32:23:7e:fd:00:f4:c3:89:ac:5f:28:
         f2:a3:af:a9:21:47:b1:f4:48:7c:79:6d:e7:6e:b8:35:15:ea:
         6d:f2:13:35:8f:56:ea:e6:47:fb:a9:b4:f6:64:ee:b9:e8:07:
         73:de:ef:20:c0:36:a9:10:bf:4a:df:29:90:fb:fc:05:85:f0:
         62:94:7e:74:3a:42:cb:01:3d:ef:65:82:48:b8:87:8e:0e:17:
         cb:6c:a0:dc

-----BEGIN CERTIFICATE-----
MIIGwTCCBamgAwIBAgIQCNyTVTZtxZIg0KNMoRmrLTANBgkqhkiG9w0BAQsFADBP
MQswCQYDVQQGEwJVUzEVMBMGA1UEChMMRGlnaUNlcnQgSW5jMSkwJwYDVQQDEyBE
aWdpQ2VydCBUTFMgUlNBIFNIQTI1NiAyMDIwIENBMTAeFw0yMTA0MjcwMDAwMDBa
Fw0yMjA1MjUyMzU5NTlaMGcxCzAJBgNVBAYTAlVTMREwDwYDVQQIEwhOZXcgWW9y
azERMA8GA1UEBxMITmV3IFlvcmsxFjAUBgNVBAoTDU1vbmdvREIsIEluYy4xGjAY
BgNVBAMMESoubW9uZ29kYi1kZXYubmV0MIIBIjANBgkqhkiG9w0BAQEFAAOCAQ8A
MIIBCgKCAQEAu8He9gg5+/Ga99RoateBVwwJuY855cixU1LYZAzhkpzKP5JGhlzi
jyDP+ZnQlUZRflX3PWIbpOd5MQw5nSO8AG8vPV/UiBvQnEImRRsRstdF9aovB0Pa
vKtDywsSWUEkw7uGfy0aySbXayVXSJyIGiD7ZQFxJwwkpyNA3LZpTVXvFLq9BbbP
XrDC9la8iOmBBJSAm8/u8xUFeWFBIUqhIylmkOnXAx5PML2BRuSbqx/4AlxYmEjF
UBYWgA0lvlMnqovKbNXZiVArOKZV/sMKatucHiOihJNP0aE9AEirwSo8ClmoW9SI
MlSp3ojeGoLvYfqQ+kI9HaiY1jul1OvGzwIDAQABo4IDfzCCA3swHwYDVR0jBBgw
FoAUt2ui6qiqhIx56rTaD5iyxZV2ufQwHQYDVR0OBBYEFD0jMR7qHI2KCaotKoS/
BjHehwQBMC0GA1UdEQQmMCSCESoubW9uZ29kYi1kZXYubmV0gg9tb25nb2RiLWRl
di5uZXQwDgYDVR0PAQH/BAQDAgWgMB0GA1UdJQQWMBQGCCsGAQUFBwMBBggrBgEF
BQcDAjCBiwYDVR0fBIGDMIGAMD6gPKA6hjhodHRwOi8vY3JsMy5kaWdpY2VydC5j
b20vRGlnaUNlcnRUTFNSU0FTSEEyNTYyMDIwQ0ExLmNybDA+oDygOoY4aHR0cDov
L2NybDQuZGlnaWNlcnQuY29tL0RpZ2lDZXJ0VExTUlNBU0hBMjU2MjAyMENBMS5j
cmwwPgYDVR0gBDcwNTAzBgZngQwBAgIwKTAnBggrBgEFBQcCARYbaHR0cDovL3d3
dy5kaWdpY2VydC5jb20vQ1BTMH0GCCsGAQUFBwEBBHEwbzAkBggrBgEFBQcwAYYY
aHR0cDovL29jc3AuZGlnaWNlcnQuY29tMEcGCCsGAQUFBzAChjtodHRwOi8vY2Fj
ZXJ0cy5kaWdpY2VydC5jb20vRGlnaUNlcnRUTFNSU0FTSEEyNTYyMDIwQ0ExLmNy
dDAMBgNVHRMBAf8EAjAAMIIBfgYKKwYBBAHWeQIEAgSCAW4EggFqAWgAdgApeb7w
njk5IfBWc59jpXflvld9nGAK+PlNXSZcJV3HhAAAAXkVqUdqAAAEAwBHMEUCIEIg
CSz4T5xNcAwdpjmh7CBLVEtQXrW5cR9rYLxlW+cPAiEAut5lgiZlfNcBfDZRcc/3
LAl7x5of5G2OEX7bYFK8gosAdQAiRUUHWVUkVpY/oS/x922G4CMmY63AS39dxoNc
buIPAgAAAXkVqUc2AAAEAwBGMEQCIAxrXH8xtSQQcyOvJyARWJ5Apmq72EgP0Urx
+KmwMB40AiATBLWCKFnXC4Z/xiJunGf/8aOfv1SrDbgajhbS8Y43/wB3AFGjsPX9
AXmcVm24N3iPDKR6zBsny/eeiEKaDf7UiwXlAAABeRWpSPgAAAQDAEgwRgIhAND+
/sricoU6phPQ7VWLZ6+G9Ne+Zme7mb98EC0oDknDAiEAv/+6uE3Rt2pr6bPlppPK
FDdwwU+JiWZYP6oisB75FN8wDQYJKoZIhvcNAQELBQADggEBAHjjT9IPVhMNo10a
aNdk9WDSN36U103TXxEn6AssdG8jCCSUuvy4ijM/mRiDzU8UOoL5uvP/LLH1yb6v
/RZ5vc85ulxHiLGxI2ttHGddmFJYHXLufsVL5APKuke/icVIwrELnD7tPgQZYmZM
xkRv2zMgFLHfwY86IcFZDvhwPP7grXd7XYzeo83QXIQ2EABCKO58MihNQZQ85DZ+
5dKz2W/z9WMkP5/GZMwyI379APTDiaxfKPKjr6khR7H0SHx5beduuDUV6m3yEzWP
VurmR/uptPZk7rnoB3Pe7yDANqkQv0rfKZD7/AWF8GKUfnQ6QssBPe9lgki4h44O
F8tsoNw=
-----END CERTIFICATE-----