Certificate:
    Data:
        Version: 3 (0x2)
        Serial Number:
            03:a8:39:03:e8:84:cd:24:1c:9c:b1:27:8c:0a:7a:9b
        Signature Algorithm: sha256WithRSAEncryption
        Issuer: C = US, O = DigiCert Inc, CN = DigiCert Global G2 TLS RSA SHA256 2020 CA1
        Validity
            Not Before: Jun  2 00:00:00 2023 GMT
            Not After : Jun  4 23:59:59 2024 GMT
        Subject: C = US, ST = New York, L = New York, O = "MongoDB, Inc.", CN = *.mongodb-dev.net
        Subject Public Key Info:
            Public Key Algorithm: rsaEncryption
                Public-Key: (2048 bit)
                Modulus:
                    00:df:91:d8:18:9b:41:9c:83:33:58:e9:c2:42:00:
                    5a:a5:c0:61:e8:df:39:20:46:33:ae:87:34:c4:13:
                    89:d2:c9:4c:eb:6f:a5:cd:dc:31:07:b4:cf:53:74:
                    9b:3c:32:e8:df:4b:64:88:a2:03:87:e9:27:f9:7b:
                    57:ca:be:7b:51:0f:f2:b1:78:45:0e:5f:06:e9:0a:
                    c9:fe:67:d0:19:3c:8c:41:01:5f:b7:66:a0:a4:3b:
                    54:18:c2:5b:5e:b1:d7:9e:6a:78:f3:bd:24:1d:fc:
                    ce:43:d2:74:60:83:f4:f3:55:a4:dd:82:f0:e9:f1:
                    3d:ff:d1:b6:32:0f:c8:e4:aa:95:bf:52:33:8f:2f:
                    be:28:ea:ea:cf:a7:13:65:7e:3c:61:2c:38:a0:95:
                    45:b8:2d:7e:20:33:38:36:fd:6f:c8:a8:e2:ad:5b:
                    3c:91:95:d9:ec:0b:08:7d:81:25:0c:b9:40:6b:97:
                    8a:d1:c4:f9:4d:9b:45:57:03:b9:5c:03:90:d0:68:
                    29:50:12:87:59:48:f0:19:c3:4d:42:3e:80:c3:4e:
                    7e:30:e1:bb:fe:f8:30:55:83:15:ca:af:12:13:3a:
                    da:e9:91:a3:10:6d:fc:b6:64:5d:89:a3:b4:18:9a:
                    7e:ab:90:dd:11:fa:db:af:98:12:58:3c:8f:47:22:
                    f2:53
                Exponent: 65537 (0x10001)
        X509v3 extensions:
            X509v3 Authority Key Identifier: 
                74:85:80:C0:66:C7:DF:37:DE:CF:BD:29:37:AA:03:1D:BE:ED:CD:17
            X509v3 Subject Key Identifier: 
                97:FB:A6:29:30:AE:9D:F0:D9:85:05:12:AA:D4:C1:D9:EC:0F:5B:CE
            X509v3 Subject Alternative Name: 
                DNS:*.mongodb-dev.net, DNS:mongodb-dev.net
            X509v3 Key Usage: critical
                Digital Signature, Key Encipherment
            X509v3 Extended Key Usage: 
                TLS Web Server Authentication, TLS Web Client Authentication
            X509v3 CRL Distribution Points: 
                Full Name:
                  URI:http://crl3.digicert.com/DigiCertGlobalG2TLSRSASHA2562020CA1-1.crl
                Full Name:
                  URI:http://crl4.digicert.com/DigiCertGlobalG2TLSRSASHA2562020CA1-1.crl
            X509v3 Certificate Policies: 
                Policy: 2.23.140.1.2.2
                  CPS: http://www.digicert.com/CPS
            Authority Information Access: 
                OCSP - URI:http://ocsp.digicert.com
                CA Issuers - URI:http://cacerts.digicert.com/DigiCertGlobalG2TLSRSASHA2562020CA1-1.crt
            X509v3 Basic Constraints: 
                CA:FALSE
            CT Precertificate SCTs: 
                Signed Certificate Timestamp:
                    Version   : v1 (0x0)
                    Log ID    : EE:CD:D0:64:D5:DB:1A:CE:C5:5C:B7:9D:B4:CD:13:A2:
                                32:87:46:7C:BC:EC:DE:C3:51:48:59:46:71:1F:B5:9B
                    Timestamp : Jun  2 08:44:16.090 2023 GMT
                    Extensions: none
                    Signature : ecdsa-with-SHA256
                                30:46:02:21:00:88:AC:04:93:84:2C:2C:99:4F:B8:C4:
                                06:B5:7F:9B:92:D3:51:25:72:1D:DB:12:D5:C0:AA:8F:
                                D1:97:39:EF:4C:02:21:00:96:B1:11:40:0F:BA:03:28:
                                88:BF:0C:DF:4B:4A:68:67:05:97:7E:F6:BD:6F:F3:0D:
                                D8:9C:EB:90:75:FF:79:AB
                Signed Certificate Timestamp:
                    Version   : v1 (0x0)
                    Log ID    : 48:B0:E3:6B:DA:A6:47:34:0F:E5:6A:02:FA:9D:30:EB:
                                1C:52:01:CB:56:DD:2C:81:D9:BB:BF:AB:39:D8:84:73
                    Timestamp : Jun  2 08:44:16.066 2023 GMT
                    Extensions: none
                    Signature : ecdsa-with-SHA256
                                30:45:02:21:00:B0:C8:4E:75:71:84:DE:71:8F:D0:27:
                                71:6C:4D:B1:E8:20:A3:54:AF:27:A8:A2:FA:AC:46:43:
                                4A:08:C1:A9:94:02:20:1A:E1:63:79:E6:DB:4A:98:72:
                                FF:BD:C4:A2:D8:F5:11:36:4C:95:6E:68:B4:CF:E7:35:
                                84:BB:AC:A2:E6:D0:A0
                Signed Certificate Timestamp:
                    Version   : v1 (0x0)
                    Log ID    : DA:B6:BF:6B:3F:B5:B6:22:9F:9B:C2:BB:5C:6B:E8:70:
                                91:71:6C:BB:51:84:85:34:BD:A4:3D:30:48:D7:FB:AB
                    Timestamp : Jun  2 08:44:16.030 2023 GMT
                    Extensions: none
                    Signature : ecdsa-with-SHA256
                                30:44:02:20:51:59:38:3B:FF:76:EC:A2:3E:15:4B:60:
                                23:84:20:88:66:C3:64:7C:94:51:B9:1A:BD:87:15:73:
                                43:F5:96:BA:02:20:22:F3:7B:75:F4:58:58:C7:48:18:
                                85:22:17:FC:ED:07:A2:8B:A0:07:0E:32:0F:16:9C:8B:
                                E5:AA:6B:86:86:6B
    Signature Algorithm: sha256WithRSAEncryption
    Signature Value:
        be:97:77:21:55:1d:c7:18:5f:52:de:a8:85:a5:d2:ee:48:29:
        b3:46:2d:31:02:12:5b:88:1e:09:ac:f4:7e:fc:4d:e4:e8:c9:
        56:7e:de:1e:dc:53:1f:27:1b:dd:07:68:39:1c:2e:91:86:20:
        2a:f0:9a:d1:ff:c4:b5:c2:85:a7:ec:9c:b8:62:31:aa:5b:69:
        8e:37:d4:cc:ec:7b:86:86:b2:a9:6d:60:8b:70:44:ca:72:7a:
        d9:a8:54:96:f8:5a:e5:2b:2a:48:5d:4f:53:fb:b3:c9:67:70:
        a3:a6:d5:be:6d:99:11:51:89:31:e3:b1:43:54:e0:7c:cd:96:
        fd:2d:12:12:eb:a3:8e:b4:12:25:23:bf:a6:5d:70:c5:3f:8c:
        9f:0e:5d:38:d0:4b:aa:67:30:d7:c3:47:76:20:bd:1a:55:2a:
        b2:df:37:92:67:88:65:11:15:62:a8:08:3f:93:ee:c1:b1:79:
        33:03:03:0b:46:d4:5f:d2:82:31:77:6c:42:12:89:f4:f8:af:
        32:ab:45:59:91:bf:82:44:69:d2:49:7f:1b:f3:49:28:37:85:
        74:3c:4d:92:1b:56:30:4c:69:79:5d:fc:4d:a6:7b:c6:e7:f5:
        34:e6:dd:c0:25:f8:69:b2:86:3a:44:a9:41:ba:34:cd:fe:aa:
        20:d2:57:ad

-----BEGIN CERTIFICATE-----
MIIG5zCCBc+gAwIBAgIQA6g5A+iEzSQcnLEnjAp6mzANBgkqhkiG9w0BAQsFADBZ
MQswCQYDVQQGEwJVUzEVMBMGA1UEChMMRGlnaUNlcnQgSW5jMTMwMQYDVQQDEypE
aWdpQ2VydCBHbG9iYWwgRzIgVExTIFJTQSBTSEEyNTYgMjAyMCBDQTEwHhcNMjMw
NjAyMDAwMDAwWhcNMjQwNjA0MjM1OTU5WjBnMQswCQYDVQQGEwJVUzERMA8GA1UE
CBMITmV3IFlvcmsxETAPBgNVBAcTCE5ldyBZb3JrMRYwFAYDVQQKEw1Nb25nb0RC
LCBJbmMuMRowGAYDVQQDDBEqLm1vbmdvZGItZGV2Lm5ldDCCASIwDQYJKoZIhvcN
AQEBBQADggEPADCCAQoCggEBAN+R2BibQZyDM1jpwkIAWqXAYejfOSBGM66HNMQT
idLJTOtvpc3cMQe0z1N0mzwy6N9LZIiiA4fpJ/l7V8q+e1EP8rF4RQ5fBukKyf5n
0Bk8jEEBX7dmoKQ7VBjCW16x155qePO9JB38zkPSdGCD9PNVpN2C8OnxPf/RtjIP
yOSqlb9SM48vvijq6s+nE2V+PGEsOKCVRbgtfiAzODb9b8io4q1bPJGV2ewLCH2B
JQy5QGuXitHE+U2bRVcDuVwDkNBoKVASh1lI8BnDTUI+gMNOfjDhu/74MFWDFcqv
EhM62umRoxBt/LZkXYmjtBiafquQ3RH626+YElg8j0ci8lMCAwEAAaOCA5swggOX
MB8GA1UdIwQYMBaAFHSFgMBmx9833s+9KTeqAx2+7c0XMB0GA1UdDgQWBBSX+6Yp
MK6d8NmFBRKq1MHZ7A9bzjAtBgNVHREEJjAkghEqLm1vbmdvZGItZGV2Lm5ldIIP
bW9uZ29kYi1kZXYubmV0MA4GA1UdDwEB/wQEAwIFoDAdBgNVHSUEFjAUBggrBgEF
BQcDAQYIKwYBBQUHAwIwgZ8GA1UdHwSBlzCBlDBIoEagRIZCaHR0cDovL2NybDMu
ZGlnaWNlcnQuY29tL0RpZ2lDZXJ0R2xvYmFsRzJUTFNSU0FTSEEyNTYyMDIwQ0Ex
LTEuY3JsMEigRqBEhkJodHRwOi8vY3JsNC5kaWdpY2VydC5jb20vRGlnaUNlcnRH
bG9iYWxHMlRMU1JTQVNIQTI1NjIwMjBDQTEtMS5jcmwwPgYDVR0gBDcwNTAzBgZn
gQwBAgIwKTAnBggrBgEFBQcCARYbaHR0cDovL3d3dy5kaWdpY2VydC5jb20vQ1BT
MIGHBggrBgEFBQcBAQR7MHkwJAYIKwYBBQUHMAGGGGh0dHA6Ly9vY3NwLmRpZ2lj
ZXJ0LmNvbTBRBggrBgEFBQcwAoZFaHR0cDovL2NhY2VydHMuZGlnaWNlcnQuY29t
L0RpZ2lDZXJ0R2xvYmFsRzJUTFNSU0FTSEEyNTYyMDIwQ0ExLTEuY3J0MAkGA1Ud
EwQCMAAwggF+BgorBgEEAdZ5AgQCBIIBbgSCAWoBaAB3AO7N0GTV2xrOxVy3nbTN
E6Iyh0Z8vOzew1FIWUZxH7WbAAABiHtHY1oAAAQDAEgwRgIhAIisBJOELCyZT7jE
BrV/m5LTUSVyHdsS1cCqj9GXOe9MAiEAlrERQA+6AyiIvwzfS0poZwWXfva9b/MN
2JzrkHX/easAdgBIsONr2qZHNA/lagL6nTDrHFIBy1bdLIHZu7+rOdiEcwAAAYh7
R2NCAAAEAwBHMEUCIQCwyE51cYTecY/QJ3FsTbHoIKNUryeoovqsRkNKCMGplAIg
GuFjeebbSphy/73Eotj1ETZMlW5otM/nNYS7rKLm0KAAdQDatr9rP7W2Ip+bwrtc
a+hwkXFsu1GEhTS9pD0wSNf7qwAAAYh7R2MeAAAEAwBGMEQCIFFZODv/duyiPhVL
YCOEIIhmw2R8lFG5Gr2HFXND9Za6AiAi83t19FhYx0gYhSIX/O0HoougBw4yDxac
i+Wqa4aGazANBgkqhkiG9w0BAQsFAAOCAQEAvpd3IVUdxxhfUt6ohaXS7kgps0Yt
MQISW4geCaz0fvxN5OjJVn7eHtxTHycb3QdoORwukYYgKvCa0f/EtcKFp+ycuGIx
qltpjjfUzOx7hoayqW1gi3BEynJ62ahUlvha5SsqSF1PU/uzyWdwo6bVvm2ZEVGJ
MeOxQ1TgfM2W/S0SEuujjrQSJSO/pl1wxT+Mnw5dONBLqmcw18NHdiC9GlUqst83
kmeIZREVYqgIP5PuwbF5MwMDC0bUX9KCMXdsQhKJ9PivMqtFWZG/gkRp0kl/G/NJ
KDeFdDxNkhtWMExpeV38TaZ7xuf1NObdwCX4abKGOkSpQbo0zf6qINJXrQ==
-----END CERTIFICATE-----