Certificate:
    Data:
        Version: 3 (0x2)
        Serial Number: 403728 (0x62910)
        Signature Algorithm: sha256WithRSAEncryption
        Issuer: CN = intermediate-client, OU = Ruby Driver, O = MongoDB, L = New York City, ST = New York, C = US
        Validity
            Not Before: May 30 22:28:04 2019 GMT
            Not After : May 30 22:28:04 2039 GMT
        Subject: CN = localhost, OU = Ruby Driver, O = MongoDB, L = New York City, ST = New York, C = US
        Subject Public Key Info:
            Public Key Algorithm: rsaEncryption
                RSA Public-Key: (2048 bit)
                Modulus:
                    00:93:97:c2:b6:1b:ca:ba:e7:c4:64:5a:a9:f7:1f:
                    32:ba:6d:83:fb:71:83:86:a1:d8:62:65:ba:bc:f0:
                    ac:3c:c9:bd:85:79:03:72:1f:5d:fc:4e:ae:3d:85:
                    2d:6b:da:4c:c1:b3:dc:c3:c3:c1:b4:9d:f2:8e:2f:
                    97:68:31:44:2b:b9:c9:8c:8b:f7:89:e1:f0:d6:0b:
                    23:87:c6:5d:44:f3:9b:3d:c4:70:e2:03:c2:f2:0e:
                    c6:b5:60:f7:28:44:71:d5:3e:9e:6c:5e:a7:1a:29:
                    f0:9b:21:e3:be:b3:e0:0f:0d:c4:12:97:46:12:0b:
                    4f:84:61:79:65:3f:b2:45:90:e9:62:36:e7:9c:95:
                    00:93:79:69:b9:5c:b8:e6:37:ce:30:72:55:d9:19:
                    5f:6c:1a:9f:4d:af:9d:f2:ec:28:62:82:cf:27:3b:
                    83:0d:12:39:64:04:4e:68:84:8e:50:d9:52:83:db:
                    df:50:69:5a:83:0e:be:57:35:cc:c9:5b:bb:25:7b:
                    6c:db:39:be:b7:76:db:b7:fc:3c:29:68:2e:2f:f3:
                    06:90:ff:37:c6:29:3c:fd:90:36:c4:44:87:b3:eb:
                    40:c4:fa:83:5e:e5:23:b3:13:bc:f6:89:7c:5e:bb:
                    18:0f:f3:d0:18:62:f2:0d:3a:72:9c:a3:22:ef:8c:
                    95:99
                Exponent: 65537 (0x10001)
        X509v3 extensions:
            X509v3 Subject Alternative Name: 
                DNS:localhost, IP Address:127.0.0.1
    Signature Algorithm: sha256WithRSAEncryption
         53:66:80:0a:e4:a2:ec:d5:9f:af:f4:23:15:a1:82:27:e5:66:
         a9:7f:55:e3:12:0d:ed:8d:09:0a:d9:ed:37:d6:7b:58:ce:7e:
         85:72:f2:d4:9f:4e:bc:e4:27:fe:90:6a:4c:a9:49:74:50:5e:
         2b:5c:16:50:d6:d2:6f:c0:39:d6:fa:03:74:5e:79:e0:bd:eb:
         ac:8d:11:86:9e:fd:06:22:c2:c0:e2:33:c0:5a:be:d0:4e:8c:
         8e:22:0f:8c:c1:19:56:3e:74:21:8e:7f:54:b5:cd:73:7b:70:
         34:2d:e4:45:df:c4:b1:a9:84:ac:26:a8:cd:7f:0f:59:7b:d9:
         a4:5e:65:02:f6:be:11:b7:ee:f4:9e:b9:b8:1f:1c:94:da:0e:
         1c:0e:3d:c0:e4:40:e7:1d:98:5c:df:22:9f:82:21:c3:a0:52:
         1e:f4:e0:2d:07:96:f6:39:32:83:4e:88:0e:66:e2:11:18:b7:
         bc:30:e5:6d:4f:76:05:bf:ed:ff:98:b1:06:64:94:46:e5:46:
         d5:0e:b7:9a:c6:91:c5:29:78:83:a3:d1:40:c2:de:6e:ad:67:
         6b:fd:0f:0e:0c:b2:d5:6f:2c:19:d2:0d:83:5b:c7:22:ba:8a:
         35:2a:58:39:8b:87:e8:76:b5:3b:38:1e:7c:80:47:5c:73:be:
         83:96:16:65
-----BEGIN CERTIFICATE-----
MIIDjTCCAnWgAwIBAgIDBikQMA0GCSqGSIb3DQEBCwUAMH4xHDAaBgNVBAMTE2lu
dGVybWVkaWF0ZS1jbGllbnQxFDASBgNVBAsTC1J1YnkgRHJpdmVyMRAwDgYDVQQK
EwdNb25nb0RCMRYwFAYDVQQHEw1OZXcgWW9yayBDaXR5MREwDwYDVQQIEwhOZXcg
WW9yazELMAkGA1UEBhMCVVMwHhcNMTkwNTMwMjIyODA0WhcNMzkwNTMwMjIyODA0
WjB0MRIwEAYDVQQDEwlsb2NhbGhvc3QxFDASBgNVBAsTC1J1YnkgRHJpdmVyMRAw
DgYDVQQKEwdNb25nb0RCMRYwFAYDVQQHEw1OZXcgWW9yayBDaXR5MREwDwYDVQQI
EwhOZXcgWW9yazELMAkGA1UEBhMCVVMwggEiMA0GCSqGSIb3DQEBAQUAA4IBDwAw
ggEKAoIBAQCTl8K2G8q658RkWqn3HzK6bYP7cYOGodhiZbq88Kw8yb2FeQNyH138
Tq49hS1r2kzBs9zDw8G0nfKOL5doMUQrucmMi/eJ4fDWCyOHxl1E85s9xHDiA8Ly
Dsa1YPcoRHHVPp5sXqcaKfCbIeO+s+APDcQSl0YSC0+EYXllP7JFkOliNueclQCT
eWm5XLjmN84wclXZGV9sGp9Nr53y7Chigs8nO4MNEjlkBE5ohI5Q2VKD299QaVqD
Dr5XNczJW7sle2zbOb63dtu3/DwpaC4v8waQ/zfGKTz9kDbERIez60DE+oNe5SOz
E7z2iXxeuxgP89AYYvINOnKcoyLvjJWZAgMBAAGjHjAcMBoGA1UdEQQTMBGCCWxv
Y2FsaG9zdIcEfwAAATANBgkqhkiG9w0BAQsFAAOCAQEAU2aACuSi7NWfr/QjFaGC
J+VmqX9V4xIN7Y0JCtntN9Z7WM5+hXLy1J9OvOQn/pBqTKlJdFBeK1wWUNbSb8A5
1voDdF554L3rrI0Rhp79BiLCwOIzwFq+0E6MjiIPjMEZVj50IY5/VLXNc3twNC3k
Rd/EsamErCaozX8PWXvZpF5lAva+Ebfu9J65uB8clNoOHA49wORA5x2YXN8in4Ih
w6BSHvTgLQeW9jkyg06IDmbiERi3vDDlbU92Bb/t/5ixBmSURuVG1Q63msaRxSl4
g6PRQMLebq1na/0PDgyy1W8sGdINg1vHIrqKNSpYOYuH6Ha1OzgefIBHXHO+g5YW
ZQ==
-----END CERTIFICATE-----
-----BEGIN RSA PRIVATE KEY-----
MIIEpQIBAAKCAQEAk5fCthvKuufEZFqp9x8yum2D+3GDhqHYYmW6vPCsPMm9hXkD
ch9d/E6uPYUta9pMwbPcw8PBtJ3yji+XaDFEK7nJjIv3ieHw1gsjh8ZdRPObPcRw
4gPC8g7GtWD3KERx1T6ebF6nGinwmyHjvrPgDw3EEpdGEgtPhGF5ZT+yRZDpYjbn
nJUAk3lpuVy45jfOMHJV2RlfbBqfTa+d8uwoYoLPJzuDDRI5ZAROaISOUNlSg9vf
UGlagw6+VzXMyVu7JXts2zm+t3bbt/w8KWguL/MGkP83xik8/ZA2xESHs+tAxPqD
XuUjsxO89ol8XrsYD/PQGGLyDTpynKMi74yVmQIDAQABAoIBAQCPEqxzsFlD+exN
g/4DSsD4K7Wnh5CCcF28dPUitwOgIciQnJCUjoejT/pkNLelN4b0txCozRj3p607
3DKflDKLWJxinEQn61h1hXK56bb8YlH4/HaZAiB2WZCSvx6YcFEQ8JTOZKsEF+ff
2mhVszTeIvARPYd1cnVw1LTDS43bFHbe0lnj/rxsX62IYfaTJjfDa3n8cXPvrP1Y
Kkc+cV11FqSfPM0zMfE2ORNjnqEkKNb1eE9gIHSQ3nForTCASZR7gXKYTqJG6rJd
XFluDztViR5ieNeh7rMBVadPTTpt+pwtBXdKuC9+OUEe6zHnsveIFTlq/mDQuXoW
qaJgtJYhAoGBANF3oss8thvLVXAL6hdupz1htkv46LEkx8anZL3bKu/qlu5qZ0M3
sUAXZoKV1DF+LOxt5h+ZszDz1NtXh3zV/gTfNPDEipzpInEHIUWz+jZkGQ0h3kLb
H184uq3sT3uN+pImyhHHU9DhsUg/E4JxgtNCVXFyOT6B4TEQL3q60c4tAoGBALRh
VXKjfBYdm5cQqpsgx7wzHV8qmlXM4n9EwPHeUpORUMOQWD+8n9umHMtcXzg7JxyJ
UnNFRWtr/s/QOdxDXofr+PJoD5DfFLQoe6TAx7/tS5XCfv2owisCCn0lVt70mw+K
Bs8HjVl3D/LZqaohCW6PyRftySMQGS6oSAEbADSdAoGBAJ08S/R5t0233YOFPgym
4F1AOuJejvViYaAqSYIGwf1kQDXpo2gepywwJKADrkwUpc44VNUFwDAP6IlZ8/du
fwbTMl9FebN9gYAM1RoIlts7Wl60PK485BjLcb5as/NQSXZqLacY1D7pG/Xae1+g
q46/rXnCP1w/jHYS60EaeaFlAoGAacwZGRcohbQx+QXOexRb8lesp4/OW/rC8lC6
NmLm3iTCUSINkLyqqmMgympQcyPGyecFVBTSJbJ/DxabiUR+YoyWRF+imZ8ufois
FLL5temRhrJAV7kuwZj92+8Vp8miVRfo7G8Kienakd72s5GS/aUaFo3ihk0/5+zN
5tAWa8UCgYEAovak6JyEl8SShNjLhJepF6STMkY0tm15K4kBvYQd9Jn5ubm9tK0I
ZuenxJJSsKz/tLKaT4AK92r7lQp9nUFgiH1x4EM138UUihMbK1oPju+jukGMOwvk
bkMIiIDRc+G+NURpaNLC3xzeV9/uUND4rJ2RxZvhCGcYlbJRbzoYcM0=
-----END RSA PRIVATE KEY-----
