Certificate:
    Data:
        Version: 3 (0x2)
        Serial Number: 403728 (0x62910)
        Signature Algorithm: sha256WithRSAEncryption
        Issuer: CN = intermediate-client, OU = Ruby Driver, O = MongoDB, L = New York City, ST = New York, C = US
        Validity
            Not Before: May 30 22:28:04 2019 GMT
            Not After : May 30 22:28:04 2039 GMT
        Subject: CN = localhost, OU = Ruby Driver, O = MongoDB, L = New York City, ST = New York, C = US
        Subject Public Key Info:
            Public Key Algorithm: rsaEncryption
                RSA Public-Key: (2048 bit)
                Modulus:
                    00:93:97:c2:b6:1b:ca:ba:e7:c4:64:5a:a9:f7:1f:
                    32:ba:6d:83:fb:71:83:86:a1:d8:62:65:ba:bc:f0:
                    ac:3c:c9:bd:85:79:03:72:1f:5d:fc:4e:ae:3d:85:
                    2d:6b:da:4c:c1:b3:dc:c3:c3:c1:b4:9d:f2:8e:2f:
                    97:68:31:44:2b:b9:c9:8c:8b:f7:89:e1:f0:d6:0b:
                    23:87:c6:5d:44:f3:9b:3d:c4:70:e2:03:c2:f2:0e:
                    c6:b5:60:f7:28:44:71:d5:3e:9e:6c:5e:a7:1a:29:
                    f0:9b:21:e3:be:b3:e0:0f:0d:c4:12:97:46:12:0b:
                    4f:84:61:79:65:3f:b2:45:90:e9:62:36:e7:9c:95:
                    00:93:79:69:b9:5c:b8:e6:37:ce:30:72:55:d9:19:
                    5f:6c:1a:9f:4d:af:9d:f2:ec:28:62:82:cf:27:3b:
                    83:0d:12:39:64:04:4e:68:84:8e:50:d9:52:83:db:
                    df:50:69:5a:83:0e:be:57:35:cc:c9:5b:bb:25:7b:
                    6c:db:39:be:b7:76:db:b7:fc:3c:29:68:2e:2f:f3:
                    06:90:ff:37:c6:29:3c:fd:90:36:c4:44:87:b3:eb:
                    40:c4:fa:83:5e:e5:23:b3:13:bc:f6:89:7c:5e:bb:
                    18:0f:f3:d0:18:62:f2:0d:3a:72:9c:a3:22:ef:8c:
                    95:99
                Exponent: 65537 (0x10001)
        X509v3 extensions:
            X509v3 Subject Alternative Name: 
                DNS:localhost, IP Address:127.0.0.1
    Signature Algorithm: sha256WithRSAEncryption
         53:66:80:0a:e4:a2:ec:d5:9f:af:f4:23:15:a1:82:27:e5:66:
         a9:7f:55:e3:12:0d:ed:8d:09:0a:d9:ed:37:d6:7b:58:ce:7e:
         85:72:f2:d4:9f:4e:bc:e4:27:fe:90:6a:4c:a9:49:74:50:5e:
         2b:5c:16:50:d6:d2:6f:c0:39:d6:fa:03:74:5e:79:e0:bd:eb:
         ac:8d:11:86:9e:fd:06:22:c2:c0:e2:33:c0:5a:be:d0:4e:8c:
         8e:22:0f:8c:c1:19:56:3e:74:21:8e:7f:54:b5:cd:73:7b:70:
         34:2d:e4:45:df:c4:b1:a9:84:ac:26:a8:cd:7f:0f:59:7b:d9:
         a4:5e:65:02:f6:be:11:b7:ee:f4:9e:b9:b8:1f:1c:94:da:0e:
         1c:0e:3d:c0:e4:40:e7:1d:98:5c:df:22:9f:82:21:c3:a0:52:
         1e:f4:e0:2d:07:96:f6:39:32:83:4e:88:0e:66:e2:11:18:b7:
         bc:30:e5:6d:4f:76:05:bf:ed:ff:98:b1:06:64:94:46:e5:46:
         d5:0e:b7:9a:c6:91:c5:29:78:83:a3:d1:40:c2:de:6e:ad:67:
         6b:fd:0f:0e:0c:b2:d5:6f:2c:19:d2:0d:83:5b:c7:22:ba:8a:
         35:2a:58:39:8b:87:e8:76:b5:3b:38:1e:7c:80:47:5c:73:be:
         83:96:16:65
-----BEGIN CERTIFICATE-----
MIIDjTCCAnWgAwIBAgIDBikQMA0GCSqGSIb3DQEBCwUAMH4xHDAaBgNVBAMTE2lu
dGVybWVkaWF0ZS1jbGllbnQxFDASBgNVBAsTC1J1YnkgRHJpdmVyMRAwDgYDVQQK
EwdNb25nb0RCMRYwFAYDVQQHEw1OZXcgWW9yayBDaXR5MREwDwYDVQQIEwhOZXcg
WW9yazELMAkGA1UEBhMCVVMwHhcNMTkwNTMwMjIyODA0WhcNMzkwNTMwMjIyODA0
WjB0MRIwEAYDVQQDEwlsb2NhbGhvc3QxFDASBgNVBAsTC1J1YnkgRHJpdmVyMRAw
DgYDVQQKEwdNb25nb0RCMRYwFAYDVQQHEw1OZXcgWW9yayBDaXR5MREwDwYDVQQI
EwhOZXcgWW9yazELMAkGA1UEBhMCVVMwggEiMA0GCSqGSIb3DQEBAQUAA4IBDwAw
ggEKAoIBAQCTl8K2G8q658RkWqn3HzK6bYP7cYOGodhiZbq88Kw8yb2FeQNyH138
Tq49hS1r2kzBs9zDw8G0nfKOL5doMUQrucmMi/eJ4fDWCyOHxl1E85s9xHDiA8Ly
Dsa1YPcoRHHVPp5sXqcaKfCbIeO+s+APDcQSl0YSC0+EYXllP7JFkOliNueclQCT
eWm5XLjmN84wclXZGV9sGp9Nr53y7Chigs8nO4MNEjlkBE5ohI5Q2VKD299QaVqD
Dr5XNczJW7sle2zbOb63dtu3/DwpaC4v8waQ/zfGKTz9kDbERIez60DE+oNe5SOz
E7z2iXxeuxgP89AYYvINOnKcoyLvjJWZAgMBAAGjHjAcMBoGA1UdEQQTMBGCCWxv
Y2FsaG9zdIcEfwAAATANBgkqhkiG9w0BAQsFAAOCAQEAU2aACuSi7NWfr/QjFaGC
J+VmqX9V4xIN7Y0JCtntN9Z7WM5+hXLy1J9OvOQn/pBqTKlJdFBeK1wWUNbSb8A5
1voDdF554L3rrI0Rhp79BiLCwOIzwFq+0E6MjiIPjMEZVj50IY5/VLXNc3twNC3k
Rd/EsamErCaozX8PWXvZpF5lAva+Ebfu9J65uB8clNoOHA49wORA5x2YXN8in4Ih
w6BSHvTgLQeW9jkyg06IDmbiERi3vDDlbU92Bb/t/5ixBmSURuVG1Q63msaRxSl4
g6PRQMLebq1na/0PDgyy1W8sGdINg1vHIrqKNSpYOYuH6Ha1OzgefIBHXHO+g5YW
ZQ==
-----END CERTIFICATE-----
-----BEGIN RSA PRIVATE KEY-----
MIIEpQIBAAKCAQEAk5fCthvKuufEZFqp9x8yum2D+3GDhqHYYmW6vPCsPMm9hXkD
ch9d/E6uPYUta9pMwbPcw8PBtJ3yji+XaDFEK7nJjIv3ieHw1gsjh8ZdRPObPcRw
4gPC8g7GtWD3KERx1T6ebF6nGinwmyHjvrPgDw3EEpdGEgtPhGF5ZT+yRZDpYjbn
nJUAk3lpuVy45jfOMHJV2RlfbBqfTa+d8uwoYoLPJzuDDRI5ZAROaISOUNlSg9vf
UGlagw6+VzXMyVu7JXts2zm+t3bbt/w8KWguL/MGkP83xik8/ZA2xESHs+tAxPqD
XuUjsxO89ol8XrsYD/PQGGLyDTpynKMi74yVmQIDAQABAoIBAQCPEqxzsFlD+exN
g/4DSsD4K7Wnh5CCcF28dPUitwOgIciQnJCUjoejT/pkNLelN4b0txCozRj3p607
3DKflDKLWJxinEQn61h1hXK56bb8YlH4/HaZAiB2WZCSvx6YcFEQ8JTOZKsEF+ff
2mhVszTeIvARPYd1cnVw1LTDS43bFHbe0lnj/rxsX62IYfaTJjfDa3n8cXPvrP1Y
Kkc+cV11FqSfPM0zMfE2ORNjnqEkKNb1eE9gIHSQ3nForTCASZR7gXKYTqJG6rJd
XFluDztViR5ieNeh7rMBVadPTTpt+pwtBXdKuC9+OUEe6zHnsveIFTlq/mDQuXoW
qaJgtJYhAoGBANF3oss8thvLVXAL6hdupz1htkv46LEkx8anZL3bKu/qlu5qZ0M3
sUAXZoKV1DF+LOxt5h+ZszDz1NtXh3zV/gTfNPDEipzpInEHIUWz+jZkGQ0h3kLb
H184uq3sT3uN+pImyhHHU9DhsUg/E4JxgtNCVXFyOT6B4TEQL3q60c4tAoGBALRh
VXKjfBYdm5cQqpsgx7wzHV8qmlXM4n9EwPHeUpORUMOQWD+8n9umHMtcXzg7JxyJ
UnNFRWtr/s/QOdxDXofr+PJoD5DfFLQoe6TAx7/tS5XCfv2owisCCn0lVt70mw+K
Bs8HjVl3D/LZqaohCW6PyRftySMQGS6oSAEbADSdAoGBAJ08S/R5t0233YOFPgym
4F1AOuJejvViYaAqSYIGwf1kQDXpo2gepywwJKADrkwUpc44VNUFwDAP6IlZ8/du
fwbTMl9FebN9gYAM1RoIlts7Wl60PK485BjLcb5as/NQSXZqLacY1D7pG/Xae1+g
q46/rXnCP1w/jHYS60EaeaFlAoGAacwZGRcohbQx+QXOexRb8lesp4/OW/rC8lC6
NmLm3iTCUSINkLyqqmMgympQcyPGyecFVBTSJbJ/DxabiUR+YoyWRF+imZ8ufois
FLL5temRhrJAV7kuwZj92+8Vp8miVRfo7G8Kienakd72s5GS/aUaFo3ihk0/5+zN
5tAWa8UCgYEAovak6JyEl8SShNjLhJepF6STMkY0tm15K4kBvYQd9Jn5ubm9tK0I
ZuenxJJSsKz/tLKaT4AK92r7lQp9nUFgiH1x4EM138UUihMbK1oPju+jukGMOwvk
bkMIiIDRc+G+NURpaNLC3xzeV9/uUND4rJ2RxZvhCGcYlbJRbzoYcM0=
-----END RSA PRIVATE KEY-----
Certificate:
    Data:
        Version: 3 (0x2)
        Serial Number: 148609 (0x24481)
        Signature Algorithm: sha256WithRSAEncryption
        Issuer: CN = Ruby Driver CA, OU = Drivers, O = MongoDB, L = New York City, ST = New York, C = US
        Validity
            Not Before: May 30 22:24:53 2019 GMT
            Not After : May 30 22:24:53 2039 GMT
        Subject: CN = intermediate-client, OU = Ruby Driver, O = MongoDB, L = New York City, ST = New York, C = US
        Subject Public Key Info:
            Public Key Algorithm: rsaEncryption
                RSA Public-Key: (2048 bit)
                Modulus:
                    00:a0:8e:fd:8b:92:49:40:d4:e6:f0:d9:0f:e8:b1:
                    20:26:79:1c:d2:47:5b:dc:60:6d:5b:4e:e2:ee:b6:
                    93:57:28:90:c0:3e:0e:8b:5f:d7:c8:90:a1:69:02:
                    81:8b:12:50:de:9f:5a:9d:47:cc:83:73:6a:a9:17:
                    36:44:04:24:e2:57:bd:7f:df:51:a5:f6:34:00:8d:
                    40:05:fa:54:fa:83:7a:9d:11:9f:51:ad:fd:a4:c4:
                    b8:40:04:9f:8a:bd:e6:cd:4f:23:86:bd:25:21:25:
                    01:ef:38:49:90:d4:f5:95:d2:1f:46:fe:61:96:0f:
                    9c:86:77:c8:bc:a5:c2:4b:34:d5:9c:15:2c:57:7a:
                    48:a0:a1:f6:6c:24:90:fc:cd:3b:19:e5:41:97:ef:
                    86:6d:f3:7b:ab:ea:42:cb:82:4d:81:8a:19:64:24:
                    8c:ea:0a:45:54:be:91:67:90:a7:43:1a:30:48:35:
                    98:f6:ce:cd:56:f2:6e:ec:50:5a:e3:e0:e1:3e:53:
                    85:7e:ba:b2:01:ba:da:94:9e:17:e0:3c:70:bb:b7:
                    85:d6:e5:de:fd:2a:78:24:6e:91:bf:82:94:e4:44:
                    4e:b2:ee:d1:c0:25:c9:2c:2c:c0:7b:1f:cb:cf:79:
                    1e:b2:96:a9:c6:c9:3a:e4:1d:37:06:07:17:65:6f:
                    85:cb
                Exponent: 65537 (0x10001)
        X509v3 extensions:
            X509v3 Basic Constraints: 
                CA:TRUE
            X509v3 Key Usage: 
                Certificate Sign
            X509v3 Subject Alternative Name: 
                DNS:localhost, IP Address:127.0.0.1
    Signature Algorithm: sha256WithRSAEncryption
         60:09:93:0a:44:32:28:84:ab:a2:30:91:02:4a:82:30:df:90:
         a0:11:76:44:94:cc:f5:b3:53:69:dc:cf:97:dd:70:fd:99:fb:
         0a:0c:5e:f2:7b:ee:4e:88:09:42:ef:ab:ff:18:ac:85:7a:6d:
         13:47:e4:ea:63:00:a3:92:29:22:e3:08:6c:c1:07:68:52:0a:
         0e:a5:e2:3c:a9:ec:f6:94:8e:72:f3:2c:a2:89:6f:a9:0c:42:
         49:ce:23:4a:aa:8d:0b:70:88:99:38:92:58:60:f7:8c:96:16:
         42:a8:d8:8b:92:c9:8f:c1:dd:49:2e:ff:68:bd:fa:2c:2f:93:
         f4:11:67:2b:c7:f9:4b:6f:85:b3:37:bd:08:83:40:94:6a:44:
         c2:d9:e9:91:47:70:79:6c:4d:23:20:73:0f:74:9f:33:7d:9d:
         3e:74:b1:e8:55:0a:c5:2e:59:b4:9a:9d:95:82:cd:27:5f:63:
         b5:00:03:61:58:54:e8:5b:42:5d:f7:03:5d:e4:b7:b0:20:f8:
         0b:3c:0b:b8:fb:68:36:ef:be:67:27:c1:b1:ca:ff:09:9a:77:
         1d:97:69:b3:33:ef:bf:4e:ae:0f:78:9f:a8:73:10:77:b5:a9:
         e7:41:12:82:e1:25:94:cb:67:82:56:66:4d:00:d3:3a:7c:48:
         4b:50:40:cc
-----BEGIN CERTIFICATE-----
MIIDqTCCApGgAwIBAgIDAkSBMA0GCSqGSIb3DQEBCwUAMHUxFzAVBgNVBAMTDlJ1
YnkgRHJpdmVyIENBMRAwDgYDVQQLEwdEcml2ZXJzMRAwDgYDVQQKEwdNb25nb0RC
MRYwFAYDVQQHEw1OZXcgWW9yayBDaXR5MREwDwYDVQQIEwhOZXcgWW9yazELMAkG
A1UEBhMCVVMwHhcNMTkwNTMwMjIyNDUzWhcNMzkwNTMwMjIyNDUzWjB+MRwwGgYD
VQQDExNpbnRlcm1lZGlhdGUtY2xpZW50MRQwEgYDVQQLEwtSdWJ5IERyaXZlcjEQ
MA4GA1UEChMHTW9uZ29EQjEWMBQGA1UEBxMNTmV3IFlvcmsgQ2l0eTERMA8GA1UE
CBMITmV3IFlvcmsxCzAJBgNVBAYTAlVTMIIBIjANBgkqhkiG9w0BAQEFAAOCAQ8A
MIIBCgKCAQEAoI79i5JJQNTm8NkP6LEgJnkc0kdb3GBtW07i7raTVyiQwD4Oi1/X
yJChaQKBixJQ3p9anUfMg3NqqRc2RAQk4le9f99RpfY0AI1ABfpU+oN6nRGfUa39
pMS4QASfir3mzU8jhr0lISUB7zhJkNT1ldIfRv5hlg+chnfIvKXCSzTVnBUsV3pI
oKH2bCSQ/M07GeVBl++GbfN7q+pCy4JNgYoZZCSM6gpFVL6RZ5CnQxowSDWY9s7N
VvJu7FBa4+DhPlOFfrqyAbralJ4X4Dxwu7eF1uXe/Sp4JG6Rv4KU5EROsu7RwCXJ
LCzAex/Lz3kespapxsk65B03BgcXZW+FywIDAQABozkwNzAMBgNVHRMEBTADAQH/
MAsGA1UdDwQEAwICBDAaBgNVHREEEzARgglsb2NhbGhvc3SHBH8AAAEwDQYJKoZI
hvcNAQELBQADggEBAGAJkwpEMiiEq6IwkQJKgjDfkKARdkSUzPWzU2ncz5fdcP2Z
+woMXvJ77k6ICULvq/8YrIV6bRNH5OpjAKOSKSLjCGzBB2hSCg6l4jyp7PaUjnLz
LKKJb6kMQknOI0qqjQtwiJk4klhg94yWFkKo2IuSyY/B3Uku/2i9+iwvk/QRZyvH
+UtvhbM3vQiDQJRqRMLZ6ZFHcHlsTSMgcw90nzN9nT50sehVCsUuWbSanZWCzSdf
Y7UAA2FYVOhbQl33A13kt7Ag+As8C7j7aDbvvmcnwbHK/wmadx2XabMz779Org94
n6hzEHe1qedBEoLhJZTLZ4JWZk0A0zp8SEtQQMw=
-----END CERTIFICATE-----
