Certificate:
    Data:
        Version: 3 (0x2)
        Serial Number: 78086 (0x13106)
        Signature Algorithm: sha256WithRSAEncryption
        Issuer: CN = intermediate-server, OU = Ruby Driver, O = MongoDB, L = New York City, ST = New York, C = US
        Validity
            Not Before: Feb 24 22:50:04 2020 GMT
            Not After : Feb 24 22:50:04 2040 GMT
        Subject: CN = localhost, OU = Ruby Driver, O = MongoDB, L = New York City, ST = New York, C = US
        Subject Public Key Info:
            Public Key Algorithm: rsaEncryption
                RSA Public-Key: (2048 bit)
                Modulus:
                    00:8d:fb:0f:3a:2f:65:aa:a5:0c:1a:d2:2b:3f:f6:
                    c8:58:a3:03:35:97:47:6c:8e:a2:3e:b4:11:f0:51:
                    a7:a3:f9:ab:a1:89:53:48:93:e6:bf:54:e0:bb:3d:
                    f2:83:e1:b8:df:15:cd:05:f7:1e:82:c0:41:c4:8f:
                    62:e5:91:3f:89:64:62:13:05:bc:51:51:6f:6f:83:
                    44:6a:e5:3c:e3:56:ff:a1:bb:14:5c:16:fe:97:a5:
                    66:7c:5d:46:55:82:18:5e:21:4c:cf:e8:7d:73:9e:
                    ed:33:72:c9:cf:2e:31:fe:11:af:95:1c:b9:5a:23:
                    6e:11:3a:6b:36:c2:21:2c:98:d3:9d:c6:e1:41:22:
                    68:ed:b6:0b:7b:7d:11:c6:d2:31:6e:58:58:c3:e9:
                    21:0a:23:1e:82:84:40:2f:f3:ab:b8:65:d7:08:82:
                    8a:21:9f:a3:f1:32:13:2f:ce:51:c4:f6:36:29:b7:
                    44:6e:95:50:2b:66:97:8c:59:0d:d9:93:4d:2a:1c:
                    2b:dc:70:c2:80:c4:1a:ce:10:af:37:21:3b:38:71:
                    dd:93:c7:de:80:1c:07:50:d4:20:b8:b8:a4:67:c7:
                    1e:98:4d:c9:0b:c8:85:19:44:1d:1f:72:3c:b9:ff:
                    b1:dd:09:62:c9:f3:5e:df:ff:db:b3:7d:d8:09:d2:
                    84:43
                Exponent: 65537 (0x10001)
        X509v3 extensions:
            X509v3 Subject Alternative Name: 
                DNS:localhost, IP Address:127.0.0.1, DNS:localhost.test.build.10gen.cc
    Signature Algorithm: sha256WithRSAEncryption
         3a:2c:98:cc:63:78:18:f4:2f:26:92:da:04:f9:3d:18:80:81:
         27:85:75:23:7b:77:da:49:92:c6:0e:2b:14:3e:3e:68:a4:40:
         e9:e4:d2:c2:b6:c4:99:12:17:88:47:f6:c6:f4:62:cb:a9:13:
         1a:d5:7e:da:4e:54:ee:0c:f1:e9:21:82:8d:b7:64:4d:63:3c:
         33:d5:06:b4:3d:04:7f:d0:04:ef:27:47:3f:e4:9d:eb:1d:46:
         86:80:61:7b:25:03:0b:e9:24:49:68:8b:af:e3:0e:28:b8:dd:
         02:9d:fb:49:d4:56:f1:7c:16:66:31:b4:42:d3:0f:3a:fe:c8:
         9e:a9:85:25:5f:e1:57:78:c3:22:77:0f:1d:f4:32:7f:10:60:
         00:73:7a:f9:91:af:47:57:74:5d:6f:21:f9:ba:0d:43:c0:e9:
         98:20:2f:47:2d:4d:3b:37:c3:02:b4:56:7c:fe:f5:47:6b:cb:
         79:65:a6:d5:cd:dd:3e:66:69:b1:23:59:d2:90:70:8a:95:82:
         cf:7a:9d:02:82:b9:c2:ff:76:55:cb:57:c7:ae:41:36:09:69:
         df:08:b0:9a:11:12:1b:c0:25:ce:24:9f:ce:5e:b5:5b:07:b4:
         4e:4e:c1:a1:bd:7b:4d:24:13:38:dd:d6:49:21:91:d1:c9:ac:
         c1:bd:fc:7f
-----BEGIN CERTIFICATE-----
MIIDrDCCApSgAwIBAgIDATEGMA0GCSqGSIb3DQEBCwUAMH4xHDAaBgNVBAMTE2lu
dGVybWVkaWF0ZS1zZXJ2ZXIxFDASBgNVBAsTC1J1YnkgRHJpdmVyMRAwDgYDVQQK
EwdNb25nb0RCMRYwFAYDVQQHEw1OZXcgWW9yayBDaXR5MREwDwYDVQQIEwhOZXcg
WW9yazELMAkGA1UEBhMCVVMwHhcNMjAwMjI0MjI1MDA0WhcNNDAwMjI0MjI1MDA0
WjB0MRIwEAYDVQQDEwlsb2NhbGhvc3QxFDASBgNVBAsTC1J1YnkgRHJpdmVyMRAw
DgYDVQQKEwdNb25nb0RCMRYwFAYDVQQHEw1OZXcgWW9yayBDaXR5MREwDwYDVQQI
EwhOZXcgWW9yazELMAkGA1UEBhMCVVMwggEiMA0GCSqGSIb3DQEBAQUAA4IBDwAw
ggEKAoIBAQCN+w86L2WqpQwa0is/9shYowM1l0dsjqI+tBHwUaej+auhiVNIk+a/
VOC7PfKD4bjfFc0F9x6CwEHEj2LlkT+JZGITBbxRUW9vg0Rq5TzjVv+huxRcFv6X
pWZ8XUZVghheIUzP6H1znu0zcsnPLjH+Ea+VHLlaI24ROms2wiEsmNOdxuFBImjt
tgt7fRHG0jFuWFjD6SEKIx6ChEAv86u4ZdcIgoohn6PxMhMvzlHE9jYpt0RulVAr
ZpeMWQ3Zk00qHCvccMKAxBrOEK83ITs4cd2Tx96AHAdQ1CC4uKRnxx6YTckLyIUZ
RB0fcjy5/7HdCWLJ817f/9uzfdgJ0oRDAgMBAAGjPTA7MDkGA1UdEQQyMDCCCWxv
Y2FsaG9zdIcEfwAAAYIdbG9jYWxob3N0LnRlc3QuYnVpbGQuMTBnZW4uY2MwDQYJ
KoZIhvcNAQELBQADggEBADosmMxjeBj0LyaS2gT5PRiAgSeFdSN7d9pJksYOKxQ+
PmikQOnk0sK2xJkSF4hH9sb0YsupExrVftpOVO4M8ekhgo23ZE1jPDPVBrQ9BH/Q
BO8nRz/knesdRoaAYXslAwvpJEloi6/jDii43QKd+0nUVvF8FmYxtELTDzr+yJ6p
hSVf4Vd4wyJ3Dx30Mn8QYABzevmRr0dXdF1vIfm6DUPA6ZggL0ctTTs3wwK0Vnz+
9Udry3llptXN3T5mabEjWdKQcIqVgs96nQKCucL/dlXLV8euQTYJad8IsJoREhvA
Jc4kn85etVsHtE5OwaG9e00kEzjd1kkhkdHJrMG9/H8=
-----END CERTIFICATE-----
-----BEGIN RSA PRIVATE KEY-----
MIIEowIBAAKCAQEAjfsPOi9lqqUMGtIrP/bIWKMDNZdHbI6iPrQR8FGno/mroYlT
SJPmv1Tguz3yg+G43xXNBfcegsBBxI9i5ZE/iWRiEwW8UVFvb4NEauU841b/obsU
XBb+l6VmfF1GVYIYXiFMz+h9c57tM3LJzy4x/hGvlRy5WiNuETprNsIhLJjTncbh
QSJo7bYLe30RxtIxblhYw+khCiMegoRAL/OruGXXCIKKIZ+j8TITL85RxPY2KbdE
bpVQK2aXjFkN2ZNNKhwr3HDCgMQazhCvNyE7OHHdk8fegBwHUNQguLikZ8cemE3J
C8iFGUQdH3I8uf+x3QliyfNe3//bs33YCdKEQwIDAQABAoIBAGY99vc1jobWF+Nw
mYiUVC3QJc1/xQVdqWRyE8D1bD1e28OVuo23RCFgI/1yXKOv9otfjabQD/6kKDg9
8T/T2uc7jIyaQsRkWlT5OFmp/rDPw4JZ0A2I2YmmqCjCmpWU+6s9W60UhNKwDaxQ
6xbw8zs8zS4Z4zgP74EkinSCU5Vi2FJvAE6LNlqZAvPONQzhmaQUI7K4VIjSqTvc
Ye/aKyuwPlmZQRz1imMRljSBpHbtsNLBCX2ZjNNpRuB7h+yA3X4MEf+1NpymcTOq
Qm8gZXx3yaezfdoFlZpWGaStyL2bFGKkU9CjXVxXMO6xbzElM9b6ESe/Yfi8KyxE
X+ZqwOECgYEA6Pm42k8ksBPoZ7aDPOb2zvjsKAySYw5QtR642rf9dcWOnk7vxEBH
5jtKn0LZ0R7c/N+5dUud9th5MVDXIaW7OhZl42bL+oBfA4oe8p0K9yfUb8Dlyimp
2Nt9ggCQ8oQUa2HeiNArFm1DVEwS2aeCEtCc79pl50mqy8czX5hoBHkCgYEAnAMr
k0nN37OWFdRli4UBWkqPX9ExA4/WQ0DaPRlLUz3BToVkf7KtqBMeEd+Rhfj2Cte+
O85RZFdU12iofPKP85Pv0zTempQFJ8mgZweUbHYWi3RnvVJhee8jzd06iBeZkDc+
jxDt4yWHW33hvISK2f1B6PNNqqm1IQ/Sw3Vch5sCgYEAy98rui6jxknFiGyYr8TV
mg0Oa4WE3JX8XmLCFPQJIvR8d2BQRQaTZI/iHzga7/r4G3mUC2beltKcS2GYwOMM
0iojgznDqjSH8Mr/hgOTQvFh32GINL782L5KOGdScEbQr593Y3X3HqsCzlO78ye4
lcpkayhNIHbAtY5eEHuIGtECgYBJNU+gWPSrcVkPO1C/LJWa6fvnaYGHe1p+ypLe
Mt1e3U61avDi31SP1xC4MGHYLSA/rEdPRxx4amacgjb2Etir4xKZ2GhQvv7AUePc
FPl3/93KaMA5Xcvx7N6vPo21yOU9gD7x4W7PtQ+URjjEPqntauMfzfP3DpW5QvSS
1aKq2wKBgHBIkdJ2yBrWtCjemSX5KxpWD93g4QglPZumBy58Ta8UtxLXSnV12TJt
5dFJxGXPP6enOzAqePcTdSsegyfGTnQ3WwnR0nV/1OqL8+JNr2K/QHuvZDryffyX
rUmvPLTzKsTzULEIZ3uIOfDiJby3w0YG6FFs9yhHJJKIjmpCucfF
-----END RSA PRIVATE KEY-----
Certificate:
    Data:
        Version: 3 (0x2)
        Serial Number: 148609 (0x24481)
        Signature Algorithm: sha256WithRSAEncryption
        Issuer: CN = Ruby Driver CA, OU = Drivers, O = MongoDB, L = New York City, ST = New York, C = US
        Validity
            Not Before: May 30 22:24:53 2019 GMT
            Not After : May 30 22:24:53 2039 GMT
        Subject: CN = intermediate-server, OU = Ruby Driver, O = MongoDB, L = New York City, ST = New York, C = US
        Subject Public Key Info:
            Public Key Algorithm: rsaEncryption
                RSA Public-Key: (2048 bit)
                Modulus:
                    00:c8:87:6c:b9:22:f7:2c:3c:e5:3f:be:ef:64:e3:
                    20:19:63:36:ea:89:a9:85:ee:c2:32:7b:13:64:86:
                    92:7c:8c:c0:2c:dd:a2:32:0b:f2:90:7f:2f:67:9f:
                    62:fd:ae:aa:82:4c:24:0d:6d:81:2b:8f:98:e5:4b:
                    9b:f5:58:43:52:1b:69:78:7c:5b:07:1b:fc:b6:04:
                    fa:4f:21:5b:32:bc:d7:f9:9f:e4:e3:4a:82:5c:6a:
                    b7:a4:e2:d3:be:51:64:70:3e:ec:0d:5a:27:d0:d0:
                    a4:d0:d8:a1:17:a3:b7:a6:50:2b:8d:79:9c:20:7a:
                    e8:25:c5:0b:77:78:e6:f1:77:ee:2f:f4:40:19:7e:
                    bb:94:7c:7d:e0:46:8d:4f:3d:27:9e:39:20:a1:61:
                    9a:72:cb:31:ee:6d:c1:64:e8:8d:19:0a:95:fa:97:
                    1b:86:bb:7e:6d:5c:7f:a5:66:98:6d:1a:8a:ee:46:
                    f4:df:2d:8f:9d:61:a4:39:f0:19:a8:21:de:be:9d:
                    e1:4d:ca:8d:5f:a4:62:59:dd:9d:aa:08:3f:cf:6f:
                    29:f9:cc:55:2a:57:28:e1:9e:e1:21:b4:70:12:7e:
                    c1:43:6a:82:b8:46:76:f5:f9:b6:62:8b:b7:93:7e:
                    87:36:9f:ba:34:0f:20:d0:d5:83:a8:1b:7e:4b:c6:
                    e2:cf
                Exponent: 65537 (0x10001)
        X509v3 extensions:
            X509v3 Basic Constraints: 
                CA:TRUE
            X509v3 Key Usage: 
                Certificate Sign
            X509v3 Subject Alternative Name: 
                DNS:localhost, IP Address:127.0.0.1
    Signature Algorithm: sha256WithRSAEncryption
         41:bc:d9:0c:1b:5f:0e:33:c5:f6:9a:6d:4f:f6:91:17:d7:74:
         79:a4:5a:d9:ed:ee:22:35:1f:59:b5:ac:c0:8c:57:92:39:2d:
         f2:25:62:60:3b:3b:68:10:15:e0:3f:82:55:8f:c7:20:d9:0a:
         23:b7:51:a0:17:d7:45:79:f8:19:85:4f:fc:04:c1:73:3c:1b:
         36:fc:0e:51:fa:72:94:d6:15:c3:0c:7b:aa:fb:1e:ce:25:25:
         05:b9:96:e1:40:61:e3:13:97:a5:d2:1e:1b:d0:f0:ee:ca:bb:
         a0:41:ad:56:e4:3a:e8:3d:65:ae:6a:73:3b:6a:be:94:a8:b4:
         a6:66:96:27:5c:22:ea:4d:cf:b8:04:1d:b9:dc:b6:db:f9:f6:
         3f:86:ea:5a:bd:ff:0a:04:be:20:71:16:8a:1e:b6:ab:ce:04:
         1a:dd:30:6c:46:0a:0f:51:f8:71:7c:5f:ea:5e:3b:20:0b:11:
         56:96:1e:e3:2f:99:ed:0a:7e:75:95:55:c6:46:4a:21:86:f5:
         8d:b0:38:4d:c0:e1:b5:c3:aa:05:83:89:4a:b3:35:94:c7:c9:
         a3:ee:f1:02:72:fd:36:b2:75:32:75:ab:ec:b5:d4:a3:88:1e:
         0e:3c:76:65:4e:a6:41:7d:c8:b1:cd:42:14:12:64:41:16:d6:
         18:6d:10:91
-----BEGIN CERTIFICATE-----
MIIDqTCCApGgAwIBAgIDAkSBMA0GCSqGSIb3DQEBCwUAMHUxFzAVBgNVBAMTDlJ1
YnkgRHJpdmVyIENBMRAwDgYDVQQLEwdEcml2ZXJzMRAwDgYDVQQKEwdNb25nb0RC
MRYwFAYDVQQHEw1OZXcgWW9yayBDaXR5MREwDwYDVQQIEwhOZXcgWW9yazELMAkG
A1UEBhMCVVMwHhcNMTkwNTMwMjIyNDUzWhcNMzkwNTMwMjIyNDUzWjB+MRwwGgYD
VQQDExNpbnRlcm1lZGlhdGUtc2VydmVyMRQwEgYDVQQLEwtSdWJ5IERyaXZlcjEQ
MA4GA1UEChMHTW9uZ29EQjEWMBQGA1UEBxMNTmV3IFlvcmsgQ2l0eTERMA8GA1UE
CBMITmV3IFlvcmsxCzAJBgNVBAYTAlVTMIIBIjANBgkqhkiG9w0BAQEFAAOCAQ8A
MIIBCgKCAQEAyIdsuSL3LDzlP77vZOMgGWM26omphe7CMnsTZIaSfIzALN2iMgvy
kH8vZ59i/a6qgkwkDW2BK4+Y5Uub9VhDUhtpeHxbBxv8tgT6TyFbMrzX+Z/k40qC
XGq3pOLTvlFkcD7sDVon0NCk0NihF6O3plArjXmcIHroJcULd3jm8XfuL/RAGX67
lHx94EaNTz0nnjkgoWGacssx7m3BZOiNGQqV+pcbhrt+bVx/pWaYbRqK7kb03y2P
nWGkOfAZqCHevp3hTcqNX6RiWd2dqgg/z28p+cxVKlco4Z7hIbRwEn7BQ2qCuEZ2
9fm2You3k36HNp+6NA8g0NWDqBt+S8bizwIDAQABozkwNzAMBgNVHRMEBTADAQH/
MAsGA1UdDwQEAwICBDAaBgNVHREEEzARgglsb2NhbGhvc3SHBH8AAAEwDQYJKoZI
hvcNAQELBQADggEBAEG82QwbXw4zxfaabU/2kRfXdHmkWtnt7iI1H1m1rMCMV5I5
LfIlYmA7O2gQFeA/glWPxyDZCiO3UaAX10V5+BmFT/wEwXM8Gzb8DlH6cpTWFcMM
e6r7Hs4lJQW5luFAYeMTl6XSHhvQ8O7Ku6BBrVbkOug9Za5qcztqvpSotKZmlidc
IupNz7gEHbncttv59j+G6lq9/woEviBxFooetqvOBBrdMGxGCg9R+HF8X+peOyAL
EVaWHuMvme0KfnWVVcZGSiGG9Y2wOE3A4bXDqgWDiUqzNZTHyaPu8QJy/TaydTJ1
q+y11KOIHg48dmVOpkF9yLHNQhQSZEEW1hhtEJE=
-----END CERTIFICATE-----
