Certificate:
    Data:
        Version: 3 (0x2)
        Serial Number: 210471 (0x33627)
        Signature Algorithm: sha256WithRSAEncryption
        Issuer: CN = Ruby Driver CA, OU = Drivers, O = MongoDB, L = New York City, ST = New York, C = US
        Validity
            Not Before: Feb 14 20:57:50 2019 GMT
            Not After : Feb 14 20:57:50 2039 GMT
        Subject: CN = localhost, OU = Drivers, O = MongoDB, L = New York City, ST = New York, C = US
        Subject Public Key Info:
            Public Key Algorithm: rsaEncryption
                RSA Public-Key: (2048 bit)
                Modulus:
                    00:d3:29:70:81:e1:41:92:c0:cc:9b:92:0c:a9:17:
                    02:95:2e:55:0d:80:f3:2e:5d:27:24:db:4f:a6:6a:
                    a9:ce:66:bd:4e:7c:eb:01:04:28:68:11:40:39:0e:
                    ff:67:ba:4c:fe:05:7f:cb:e1:37:33:36:1e:a4:ee:
                    62:02:6b:a6:d1:b3:24:de:a5:1f:34:1c:b2:f1:c8:
                    04:09:09:fe:28:e0:23:ef:7d:47:1b:55:b5:ce:41:
                    0d:4a:55:3c:65:19:f1:c5:56:69:d3:17:1a:cc:43:
                    26:23:22:d3:f8:0c:85:21:9b:6e:fd:9e:bb:b1:19:
                    db:d8:10:74:7b:0f:f2:c6:b3:0a:d0:83:c6:48:c3:
                    99:71:f8:49:cf:f3:99:5b:eb:a1:c0:e9:6c:e8:a6:
                    84:ac:2e:1f:56:c2:1f:02:90:be:5e:ee:b7:b5:7d:
                    9b:5f:c2:76:23:c0:d8:8d:1b:52:f7:0d:21:1e:aa:
                    22:08:48:2f:ce:b4:a2:d4:92:fa:58:14:35:77:b2:
                    20:9e:52:b6:32:7b:b0:8a:49:33:83:52:57:ba:8e:
                    d9:12:8a:4d:54:f3:0e:26:c2:8b:c9:28:83:1a:34:
                    a1:a1:ee:b8:47:1e:d4:9d:b4:2e:90:15:c1:ef:a3:
                    c6:9f:7b:2d:37:08:8b:3a:4a:f5:25:58:87:60:7f:
                    d7:ab
                Exponent: 65537 (0x10001)
        X509v3 extensions:
            X509v3 Subject Alternative Name: 
                DNS:localhost, IP Address:127.0.0.1, IP Address:0:0:0:0:0:0:0:1
    Signature Algorithm: sha256WithRSAEncryption
         83:4c:55:bb:f9:09:c9:db:6e:ca:2b:91:36:78:f9:2e:26:5a:
         b0:4f:1b:2c:61:45:dc:c8:3b:7c:3d:31:b5:78:01:a1:07:2c:
         c6:d4:05:d9:61:d2:23:74:89:0c:50:8c:a1:86:94:a9:95:4c:
         0e:01:3d:60:3e:5a:79:24:09:41:80:63:59:d4:b1:85:bf:2e:
         c3:f0:e8:40:b4:56:01:1f:4b:79:69:f1:54:f9:97:b9:46:b5:
         6f:d1:56:a0:f1:de:5f:7e:03:61:53:ff:6a:fc:b3:d6:ea:ab:
         80:1c:24:89:a1:64:41:62:53:50:f1:74:02:36:04:22:37:8a:
         d8:10:85:af:6b:3a:00:34:d6:13:7a:2e:de:24:ed:ef:e7:7f:
         ac:f9:12:70:8e:d7:b2:5b:c1:ab:5a:9d:7d:8a:76:e9:9c:54:
         4e:6d:ed:41:d5:00:bf:14:b9:d1:1a:d0:42:81:ab:04:1f:84:
         0d:ba:f8:40:eb:b8:88:40:82:75:2d:9e:94:51:e3:fb:21:b0:
         9a:55:9e:84:b4:5e:a7:e3:cb:b3:6c:0c:15:56:af:7d:6e:ad:
         13:90:29:30:c7:ed:68:3f:b3:9e:ae:3c:30:e1:8b:39:3a:41:
         42:24:34:76:90:49:d6:51:3d:ee:86:85:3d:fb:dd:e1:f2:37:
         a3:13:c1:e5
-----BEGIN CERTIFICATE-----
MIIDkjCCAnqgAwIBAgIDAzYnMA0GCSqGSIb3DQEBCwUAMHUxFzAVBgNVBAMTDlJ1
YnkgRHJpdmVyIENBMRAwDgYDVQQLEwdEcml2ZXJzMRAwDgYDVQQKEwdNb25nb0RC
MRYwFAYDVQQHEw1OZXcgWW9yayBDaXR5MREwDwYDVQQIEwhOZXcgWW9yazELMAkG
A1UEBhMCVVMwHhcNMTkwMjE0MjA1NzUwWhcNMzkwMjE0MjA1NzUwWjBwMRIwEAYD
VQQDEwlsb2NhbGhvc3QxEDAOBgNVBAsTB0RyaXZlcnMxEDAOBgNVBAoTB01vbmdv
REIxFjAUBgNVBAcTDU5ldyBZb3JrIENpdHkxETAPBgNVBAgTCE5ldyBZb3JrMQsw
CQYDVQQGEwJVUzCCASIwDQYJKoZIhvcNAQEBBQADggEPADCCAQoCggEBANMpcIHh
QZLAzJuSDKkXApUuVQ2A8y5dJyTbT6Zqqc5mvU586wEEKGgRQDkO/2e6TP4Ff8vh
NzM2HqTuYgJrptGzJN6lHzQcsvHIBAkJ/ijgI+99RxtVtc5BDUpVPGUZ8cVWadMX
GsxDJiMi0/gMhSGbbv2eu7EZ29gQdHsP8sazCtCDxkjDmXH4Sc/zmVvrocDpbOim
hKwuH1bCHwKQvl7ut7V9m1/CdiPA2I0bUvcNIR6qIghIL860otSS+lgUNXeyIJ5S
tjJ7sIpJM4NSV7qO2RKKTVTzDibCi8kogxo0oaHuuEce1J20LpAVwe+jxp97LTcI
izpK9SVYh2B/16sCAwEAAaMwMC4wLAYDVR0RBCUwI4IJbG9jYWxob3N0hwR/AAAB
hxAAAAAAAAAAAAAAAAAAAAABMA0GCSqGSIb3DQEBCwUAA4IBAQCDTFW7+QnJ227K
K5E2ePkuJlqwTxssYUXcyDt8PTG1eAGhByzG1AXZYdIjdIkMUIyhhpSplUwOAT1g
Plp5JAlBgGNZ1LGFvy7D8OhAtFYBH0t5afFU+Ze5RrVv0Vag8d5ffgNhU/9q/LPW
6quAHCSJoWRBYlNQ8XQCNgQiN4rYEIWvazoANNYTei7eJO3v53+s+RJwjteyW8Gr
Wp19inbpnFRObe1B1QC/FLnRGtBCgasEH4QNuvhA67iIQIJ1LZ6UUeP7IbCaVZ6E
tF6n48uzbAwVVq99bq0TkCkwx+1oP7Oerjww4Ys5OkFCJDR2kEnWUT3uhoU9+93h
8jejE8Hl
-----END CERTIFICATE-----
-----BEGIN RSA PRIVATE KEY-----
MIIEpAIBAAKCAQEA0ylwgeFBksDMm5IMqRcClS5VDYDzLl0nJNtPpmqpzma9Tnzr
AQQoaBFAOQ7/Z7pM/gV/y+E3MzYepO5iAmum0bMk3qUfNByy8cgECQn+KOAj731H
G1W1zkENSlU8ZRnxxVZp0xcazEMmIyLT+AyFIZtu/Z67sRnb2BB0ew/yxrMK0IPG
SMOZcfhJz/OZW+uhwOls6KaErC4fVsIfApC+Xu63tX2bX8J2I8DYjRtS9w0hHqoi
CEgvzrSi1JL6WBQ1d7IgnlK2Mnuwikkzg1JXuo7ZEopNVPMOJsKLySiDGjShoe64
Rx7UnbQukBXB76PGn3stNwiLOkr1JViHYH/XqwIDAQABAoIBAE2zzga9ERgjgict
EyOVqAmlRv71GIdTF/hkC2c9kMa236pmJUP2d7fzwSI99pYA5BwFggVQFrPtklE2
tzIU0woPVd3n/Rd8CA0YgQOifbgk4pRaETRp0cDYBz/3JYY+ic0IA2D9+4p2my4K
vt1kHglD3Q/OvVpqHY/gXjx6neenhw3YmAycj/jKQoF4d1uJ25EQPxy8KCPOtcBv
4VZH2V1favKANmxbqnxRX02UhFxOIhTUpTMwnEqcDgYO/rnpEQ+/senf87JkB7Vs
FF+twnckOWcvqXC1AUNTKyeVz3NzL0+SXnZtdBGMIxq1CQFxB5EOAMGuLEc/ZTrz
ms18CiECgYEA+0y7c0+iSKc2de3ZJWysta8pbd6EMLbEU2SDLy2BItMTFWIl5Ikk
FzWwGn/86UcueBT3pEX/qxQAVX0mmQuROOU2Z/7SX1CyRcGMHd54l+xwcwgtk7U1
Jf2vhMgT6ZE/8YMOqJCVmYIqh40b2XmFVXZNaNz8VHDfkRWX/8JEl90CgYEA1xyF
IUfOAAQZTkKLTnvHvg12nvs85kf4c1abe+O9ctAVzYfrNyaYA42YMsnyXBcxxkMp
O/znPq0c652EMU7OiVK9mosvWUcEiyqzC2nOeWT/hfpM7DvudjugGbNSxgVsvVbd
MeLTAJs3kUicidS+bQ/7hBGI8eY2OVzlSGGmuScCgYEAqTA5B+J2dQm2/eC7kJnB
EbUzZFgqkY2LUkXamHm/do27TGs+7cVzOfkYbk77HKei3o/nRn8mKa0WqHfQ87s4
86BGZ+/E/Q0caSBs0HNGp6o07w1zef3HIaPRdskpttfmwBgnV0+4mJhtP8O+G0XY
gfhbF52oeMVhj5GFO1k0yzUCgYBKZk/Zaedi9Af4nGVoOMGmBywO4qB2mU/iPIM8
f1FIA5Z25trA0XVkTTXl4xkTJuaNRy9c0yT79Y36JBnToAkpT9fKOveebkSxCYyx
lt/V9su2ABNY5YWdmRPPr8kiOkAY4JFSrrwCCq1Wb4HM3isat5trW1E9MT1x66JV
vYiXowKBgQDVcwEyiBFY2sdwMQJ8jyHwJxcGzp7M2eDfbBOXhA2vnMM0M2J1PyxR
VM9cElyyX5/KsdnmIRCa/GpTm5Fuuua9pG3geB2z+Gxq+9wccc/72MQfX1GoYWc8
StVxFy3oAncFNiXtgew++P/8ANZiABBXU4aG13iLJotQkXjO2okqBA==
-----END RSA PRIVATE KEY-----
